
mem_test_small_custom.elf:     file format elf32-littlenios2
mem_test_small_custom.elf
architecture: nios2:r1, flags 0x00000112:
EXEC_P, HAS_SYMS, D_PAGED
start address 0x00008020

Program Header:
    LOAD off    0x00001000 vaddr 0x00008000 paddr 0x00008000 align 2**12
         filesz 0x00000020 memsz 0x00000020 flags r-x
    LOAD off    0x00001020 vaddr 0x00008020 paddr 0x00008020 align 2**12
         filesz 0x0000188c memsz 0x0000188c flags r-x
    LOAD off    0x000028ac vaddr 0x000098ac paddr 0x00009a0c align 2**12
         filesz 0x00000160 memsz 0x00000160 flags rw-
    LOAD off    0x00002b6c vaddr 0x00009b6c paddr 0x00009b6c align 2**12
         filesz 0x00000000 memsz 0x00000010 flags rw-

Sections:
Idx Name          Size      VMA       LMA       File off  Algn
  0 .entry        00000020  00008000  00008000  00001000  2**5
                  CONTENTS, ALLOC, LOAD, READONLY, CODE
  1 .exceptions   00000000  00008020  00008020  00002a0c  2**0
                  CONTENTS
  2 .text         00001274  00008020  00008020  00001020  2**2
                  CONTENTS, ALLOC, LOAD, READONLY, CODE
  3 .rodata       00000618  00009294  00009294  00002294  2**2
                  CONTENTS, ALLOC, LOAD, READONLY, DATA
  4 .rwdata       00000160  000098ac  00009a0c  000028ac  2**2
                  CONTENTS, ALLOC, LOAD, DATA, SMALL_DATA
  5 .bss          00000010  00009b6c  00009b6c  00002b6c  2**2
                  ALLOC, SMALL_DATA
  6 .onchip_mem   00000000  00009b7c  00009b7c  00002a0c  2**0
                  CONTENTS
  7 .comment      0000002d  00000000  00000000  00002a0c  2**0
                  CONTENTS, READONLY
  8 .debug_aranges 000003f8  00000000  00000000  00002a40  2**3
                  CONTENTS, READONLY, DEBUGGING, OCTETS
  9 .debug_info   00007a41  00000000  00000000  00002e38  2**0
                  CONTENTS, READONLY, DEBUGGING, OCTETS
 10 .debug_abbrev 000024e1  00000000  00000000  0000a879  2**0
                  CONTENTS, READONLY, DEBUGGING, OCTETS
 11 .debug_line   0000334d  00000000  00000000  0000cd5a  2**0
                  CONTENTS, READONLY, DEBUGGING, OCTETS
 12 .debug_frame  00000590  00000000  00000000  000100a8  2**2
                  CONTENTS, READONLY, DEBUGGING, OCTETS
 13 .debug_str    000017bd  00000000  00000000  00010638  2**0
                  CONTENTS, READONLY, DEBUGGING, OCTETS
 14 .debug_loc    00002440  00000000  00000000  00011df5  2**0
                  CONTENTS, READONLY, DEBUGGING, OCTETS
 15 .debug_alt_sim_info 00000020  00000000  00000000  00014238  2**2
                  CONTENTS, READONLY, DEBUGGING, OCTETS
 16 .debug_ranges 00000370  00000000  00000000  00014258  2**3
                  CONTENTS, READONLY, DEBUGGING, OCTETS
 17 .thread_model 00000003  00000000  00000000  00015a1c  2**0
                  CONTENTS, READONLY
 18 .cpu          00000003  00000000  00000000  00015a1f  2**0
                  CONTENTS, READONLY
 19 .qsys         00000001  00000000  00000000  00015a22  2**0
                  CONTENTS, READONLY
 20 .simulation_enabled 00000001  00000000  00000000  00015a23  2**0
                  CONTENTS, READONLY
 21 .sysid_hash   00000004  00000000  00000000  00015a24  2**0
                  CONTENTS, READONLY
 22 .sysid_base   00000004  00000000  00000000  00015a28  2**0
                  CONTENTS, READONLY
 23 .sysid_time   00000004  00000000  00000000  00015a2c  2**0
                  CONTENTS, READONLY
 24 .stderr_dev   00000009  00000000  00000000  00015a30  2**0
                  CONTENTS, READONLY
 25 .stdin_dev    00000009  00000000  00000000  00015a39  2**0
                  CONTENTS, READONLY
 26 .stdout_dev   00000009  00000000  00000000  00015a42  2**0
                  CONTENTS, READONLY
 27 .sopc_system_name 00000013  00000000  00000000  00015a4b  2**0
                  CONTENTS, READONLY
 28 .quartus_project_dir 0000002d  00000000  00000000  00015a5e  2**0
                  CONTENTS, READONLY
 29 .jdi          00005236  00000000  00000000  00015a8b  2**0
                  CONTENTS, READONLY
SYMBOL TABLE:
00008000 l    d  .entry	00000000 .entry
00008020 l    d  .exceptions	00000000 .exceptions
00008020 l    d  .text	00000000 .text
00009294 l    d  .rodata	00000000 .rodata
000098ac l    d  .rwdata	00000000 .rwdata
00009b6c l    d  .bss	00000000 .bss
00009b7c l    d  .onchip_mem	00000000 .onchip_mem
00000000 l    d  .comment	00000000 .comment
00000000 l    d  .debug_aranges	00000000 .debug_aranges
00000000 l    d  .debug_info	00000000 .debug_info
00000000 l    d  .debug_abbrev	00000000 .debug_abbrev
00000000 l    d  .debug_line	00000000 .debug_line
00000000 l    d  .debug_frame	00000000 .debug_frame
00000000 l    d  .debug_str	00000000 .debug_str
00000000 l    d  .debug_loc	00000000 .debug_loc
00000000 l    d  .debug_alt_sim_info	00000000 .debug_alt_sim_info
00000000 l    d  .debug_ranges	00000000 .debug_ranges
00000000 l    df *ABS*	00000000 c:/Users/dlerner/Documents/FPGA/EC544_Project/software/mem_test_small_custom_bsp//obj/HAL/src/crt0.o
00008058 l       .text	00000000 alt_after_alt_main
00000000 l    df *ABS*	00000000 memtest_small.c
00000000 l    df *ABS*	00000000 impure.c
000098ac l     O .rwdata	000000e4 impure_data
00000000 l    df *ABS*	00000000 printf.c
00000000 l    df *ABS*	00000000 putchar.c
00000000 l    df *ABS*	00000000 puts.c
00000000 l    df *ABS*	00000000 strlen.c
00000000 l    df *ABS*	00000000 strtol.c
000084f8 l     F .text	00000200 _strtol_l.constprop.0
00000000 l    df *ABS*	00000000 vfprintf.c
0000872c l     F .text	0000006c print_repeat
00000000 l    df *ABS*	00000000 ctype_.c
00000000 l    df *ABS*	00000000 errno.c
00000000 l    df *ABS*	00000000 fvwrite_small_dev.c
00000000 l    df *ABS*	00000000 putc.c
00000000 l    df *ABS*	00000000 writer.c
00000000 l    df *ABS*	00000000 int_errno.c
00000000 l    df *ABS*	00000000 lib2-divmod.c
00000000 l    df *ABS*	00000000 alt_getchar.c
00000000 l    df *ABS*	00000000 alt_load.c
00000000 l    df *ABS*	00000000 alt_main.c
00000000 l    df *ABS*	00000000 alt_write.c
00000000 l    df *ABS*	00000000 alt_sys_init.c
00000000 l    df *ABS*	00000000 altera_avalon_jtag_uart_read.c
00000000 l    df *ABS*	00000000 altera_avalon_jtag_uart_write.c
00000000 l    df *ABS*	00000000 alt_dcache_flush_all.c
00000000 l    df *ABS*	00000000 alt_dev.c
000091f4 l     F .text	00000008 alt_dev_null_write
00000000 l    df *ABS*	00000000 alt_errno.c
00000000 l    df *ABS*	00000000 alt_icache_flush_all.c
00000000 l    df *ABS*	00000000 altera_nios2_gen2_irq.c
00000000 l    df *ABS*	00000000 alt_icache_flush.c
00000000 l    df *ABS*	00000000 memcpy.c
00008434 g     F .text	00000018 putchar
000090bc g     F .text	0000002c alt_main
0000844c g     F .text	00000080 _puts_r
00009a0c g       *ABS*	00000000 __flash_rwdata_start
000083e4 g     F .text	00000048 printf
0000805c g     F .text	00000070 GetInputString
000099f0 g     O .rwdata	00000004 jtag_uart
00009208 g     F .text	00000008 altera_nios2_gen2_irq_init
00008c9c g     F .text	0000000c __errno
00008000 g     F .entry	0000001c __reset
00008020 g       *ABS*	00000000 __flash_exceptions_start
00009b6c g     O .bss	00000004 errno
00009b74 g     O .bss	00000004 alt_argv
000119e8 g       *ABS*	00000000 _gp
00009990 g     O .rwdata	00000030 alt_fd_list
0000842c g     F .text	00000008 _putchar_r
0000926c g     F .text	00000028 memcpy
000084cc g     F .text	00000010 puts
00009168 g     F .text	00000058 altera_avalon_jtag_uart_read
000083a8 g     F .text	0000003c _printf_r
00008f38 g     F .text	00000064 .hidden __udivsi3
00009210 g     F .text	0000005c alt_icache_flush
000099f4 g     O .rwdata	00000004 alt_max_fd
000099e8 g     O .rwdata	00000004 _global_impure_ptr
00009b7c g       *ABS*	00000000 __bss_end
00008ff8 g     F .text	00000040 alt_getchar
000086fc g     F .text	00000018 strtol_l
00008714 g     F .text	00000018 strtol
00008000 g       *ABS*	00000000 __alt_mem_onchip_mem
000099c0 g     O .rwdata	00000028 alt_dev_null
000091f0 g     F .text	00000004 alt_dcache_flush_all
00009a0c g       *ABS*	00000000 __ram_rwdata_end
000099f8 g     O .rwdata	00000008 alt_dev_list
000090e8 g     F .text	0000005c write
00008da0 g     F .text	00000054 _putc_r
000098ac g       *ABS*	00000000 __ram_rodata_end
00008f9c g     F .text	0000005c .hidden __umodsi3
00009b7c g       *ABS*	00000000 end
0000d000 g       *ABS*	00000000 __alt_stack_pointer
000091c0 g     F .text	00000030 altera_avalon_jtag_uart_write
00008798 g     F .text	000004ec ___vfprintf_internal_r
00009720 g     O .rodata	00000180 _ctype_b
00008020 g     F .text	0000003c _start
00009164 g     F .text	00000004 alt_sys_init
000098ac g       *ABS*	00000000 __ram_rwdata_start
00009294 g       *ABS*	00000000 __ram_rodata_start
00009b7c g       *ABS*	00000000 __alt_stack_base
00008ca8 g     F .text	000000a8 __sfvwrite_small_dev
00009b6c g       *ABS*	00000000 __bss_start
000080cc g     F .text	000002dc main
00009b70 g     O .bss	00000004 alt_envp
000086f8 g     F .text	00000004 _strtol_r
00009a08 g     O .rwdata	00000004 alt_errno
00008d50 g     F .text	00000050 putc
00008e44 g     F .text	00000080 .hidden __divsi3
00009294 g       *ABS*	00000000 __flash_rodata_start
00009144 g     F .text	00000020 alt_irq_init
00008df4 g     F .text	00000050 _write_r
000099ec g     O .rwdata	00000004 _impure_ptr
00009b78 g     O .bss	00000004 alt_argc
00009a00 g     O .rwdata	00000008 alt_fs_list
00008020 g       *ABS*	00000000 __ram_exceptions_start
00009a0c g       *ABS*	00000000 _edata
00009b7c g       *ABS*	00000000 _end
00008020 g       *ABS*	00000000 __ram_exceptions_end
00008ec4 g     F .text	00000074 .hidden __modsi3
0000d000 g       *ABS*	00000000 __alt_data_end
0000961c g     O .rodata	00000101 _ctype_
0000801c g       .entry	00000000 _exit
000084dc g     F .text	0000001c strlen
000091fc g     F .text	0000000c alt_icache_flush_all
00008c84 g     F .text	00000018 __vfprintf_internal
00009038 g     F .text	00000084 alt_load



Disassembly of section .entry:

00008000 <__reset>:
#if NIOS2_ICACHE_SIZE > 0 && defined(ALT_ALLOW_CODE_AT_RESET) && (!defined(ALT_SIM_OPTIMIZE) || defined(NIOS2_ECC_PRESENT))
    /* Assume the instruction cache size is always a power of two. */
#if NIOS2_ICACHE_SIZE > 0x8000
    movhi r2, %hi(NIOS2_ICACHE_SIZE)
#else
    movui r2, NIOS2_ICACHE_SIZE
    8000:	00820014 	movui	r2,2048
#endif

0:
    initi r2
    8004:	1001483a 	initi	r2
    addi r2, r2, -NIOS2_ICACHE_LINE_SIZE
    8008:	10bff804 	addi	r2,r2,-32
    bgt r2, zero, 0b
    800c:	00bffd16 	blt	zero,r2,8004 <__reset+0x4>
 * Jump to the _start entry point in the .text section if reset code
 * is allowed or if optimizing for RTL simulation.
 */
#if defined(ALT_ALLOW_CODE_AT_RESET) || defined(ALT_SIM_OPTIMIZE)
    /* Jump to the _start entry point in the .text section. */
    movhi r1, %hi(_start)
    8010:	00400034 	movhi	at,0
    ori r1, r1, %lo(_start)
    8014:	08600814 	ori	at,at,32800
    jmp r1
    8018:	0800683a 	jmp	at

0000801c <_exit>:
    801c:	00000000 	call	0 <__alt_mem_onchip_mem-0x8000>

Disassembly of section .text:

00008020 <_start>:

    /*
     * Now that the caches are initialized, set up the stack pointer and global pointer.
     * The values provided by the linker are assumed to be correctly aligned.
     */
    movhi sp, %hi(__alt_stack_pointer)
    8020:	06c00034 	movhi	sp,0
    ori sp, sp, %lo(__alt_stack_pointer)
    8024:	def40014 	ori	sp,sp,53248
    movhi gp, %hi(_gp)
    8028:	06800074 	movhi	gp,1
    ori gp, gp, %lo(_gp)
    802c:	d6867a14 	ori	gp,gp,6632
 */
#ifndef ALT_SIM_OPTIMIZE
    /* Log that the BSS is about to be cleared. */
    ALT_LOG_PUTS(alt_log_msg_bss)

    movhi r2, %hi(__bss_start)
    8030:	00800034 	movhi	r2,0
    ori r2, r2, %lo(__bss_start)
    8034:	10a6db14 	ori	r2,r2,39788

    movhi r3, %hi(__bss_end)
    8038:	00c00034 	movhi	r3,0
    ori r3, r3, %lo(__bss_end)
    803c:	18e6df14 	ori	r3,r3,39804

    beq r2, r3, 1f
    8040:	10c00326 	beq	r2,r3,8050 <_start+0x30>

0:
    stw zero, (r2)
    8044:	10000015 	stw	zero,0(r2)
    addi r2, r2, 4
    8048:	10800104 	addi	r2,r2,4
    bltu r2, r3, 0b
    804c:	10fffd36 	bltu	r2,r3,8044 <_start+0x24>
     * section aren't defined until alt_load() has been called).
     */
    mov   et, zero
#endif

    call alt_load
    8050:	00090380 	call	9038 <alt_load>

    /* Log that alt_main is about to be called. */
    ALT_LOG_PUTS(alt_log_msg_alt_main)

    /* Call the C entry point. It should never return. */
    call alt_main
    8054:	00090bc0 	call	90bc <alt_main>

00008058 <alt_after_alt_main>:

    /* Wait in infinite loop in case alt_main does return. */
alt_after_alt_main:
    br alt_after_alt_main
    8058:	003fff06 	br	8058 <alt_after_alt_main>

0000805c <GetInputString>:
*           returns the string, minus any '\r' characters it 
*           encounters.
*
******************************************************************/
void GetInputString( char* entry, int size, FILE * stream )
{
    805c:	defffb04 	addi	sp,sp,-20
    8060:	dcc00315 	stw	r19,12(sp)
    8064:	dc800215 	stw	r18,8(sp)
    8068:	dc400115 	stw	r17,4(sp)
    806c:	dfc00415 	stw	ra,16(sp)
    8070:	dc000015 	stw	r16,0(sp)
    8074:	2027883a 	mov	r19,r4
    8078:	2825883a 	mov	r18,r5
  int i;
  int ch = 0;
  
  for(i = 0; (ch != '\n') && (i < size); )
    807c:	0023883a 	mov	r17,zero
    8080:	8c800b0e 	bge	r17,r18,80b0 <GetInputString+0x54>
  {
    if( (ch = alt_getchar()) != '\r')
    8084:	0008ff80 	call	8ff8 <alt_getchar>
    8088:	1021883a 	mov	r16,r2
    808c:	10800360 	cmpeqi	r2,r2,13
    8090:	103ffb1e 	bne	r2,zero,8080 <GetInputString+0x24>
    {
      putchar(ch);
    8094:	8009883a 	mov	r4,r16
    8098:	00084340 	call	8434 <putchar>
      entry[i] = ch;
    809c:	9c45883a 	add	r2,r19,r17
    80a0:	14000005 	stb	r16,0(r2)
  for(i = 0; (ch != '\n') && (i < size); )
    80a4:	84000298 	cmpnei	r16,r16,10
      i++;
    80a8:	8c400044 	addi	r17,r17,1
  for(i = 0; (ch != '\n') && (i < size); )
    80ac:	803ff41e 	bne	r16,zero,8080 <GetInputString+0x24>
    }
  }
}
    80b0:	dfc00417 	ldw	ra,16(sp)
    80b4:	dcc00317 	ldw	r19,12(sp)
    80b8:	dc800217 	ldw	r18,8(sp)
    80bc:	dc400117 	ldw	r17,4(sp)
    80c0:	dc000017 	ldw	r16,0(sp)
    80c4:	dec00504 	addi	sp,sp,20
    80c8:	f800283a 	ret

000080cc <main>:
  printf("\n\n");
    80cc:	01000074 	movhi	r4,1
*  Purpose: Continually prints the menu and performs the actions
*           requested by the user.
* 
******************************************************************/
int main(void)
{
    80d0:	defff204 	addi	sp,sp,-56
  printf("\n\n");
    80d4:	21257a04 	addi	r4,r4,-27160
{
    80d8:	dfc00d15 	stw	ra,52(sp)
    80dc:	dd400915 	stw	r21,36(sp)
    80e0:	dd000815 	stw	r20,32(sp)
    80e4:	dcc00715 	stw	r19,28(sp)
    80e8:	df000c15 	stw	fp,48(sp)
    80ec:	ddc00b15 	stw	r23,44(sp)
    80f0:	dd800a15 	stw	r22,40(sp)
    80f4:	dc800615 	stw	r18,24(sp)
    80f8:	dc400515 	stw	r17,20(sp)
    80fc:	dc000415 	stw	r16,16(sp)
  printf("\n\n");
    8100:	00084cc0 	call	84cc <puts>
  printf("             <---->   Nios II Memory Test.   <---->\n");
    8104:	01000074 	movhi	r4,1
    8108:	2124a504 	addi	r4,r4,-28012
    810c:	00084cc0 	call	84cc <puts>
  printf("This software example tests the memory in your system to assure it\n");
    8110:	01000074 	movhi	r4,1
    8114:	2124b204 	addi	r4,r4,-27960
    8118:	00084cc0 	call	84cc <puts>
  printf("is working properly.  This test is destructive to the contents of\n");
    811c:	01000074 	movhi	r4,1
    8120:	2124c304 	addi	r4,r4,-27892
    8124:	00084cc0 	call	84cc <puts>
  printf("the memory it tests. Assure the memory being tested does not contain\n");
    8128:	01000074 	movhi	r4,1
    812c:	2124d404 	addi	r4,r4,-27824
    8130:	00084cc0 	call	84cc <puts>
  printf("the executable or data sections of this code or the exception address\n");
    8134:	01000074 	movhi	r4,1
    8138:	2124e604 	addi	r4,r4,-27752
    813c:	00084cc0 	call	84cc <puts>
  printf("of the system.\n");
    8140:	01000074 	movhi	r4,1
    8144:	2124f804 	addi	r4,r4,-27680
  /* Print the Header */
  MenuHeader();

  while (1)
  {
    printf("\nPress enter to continue or 'q' to quit.\n");
    8148:	04c00074 	movhi	r19,1
    printf("Base address to start memory test: (i.e. 0x800000)\n");
    814c:	05000074 	movhi	r20,1
      IOWR_32DIRECT(memory_base, offset, 0x12345678);
    8150:	05448d34 	movhi	r21,4660
  printf("of the system.\n");
    8154:	00084cc0 	call	84cc <puts>
    printf("\nPress enter to continue or 'q' to quit.\n");
    8158:	9ce4fc04 	addi	r19,r19,-27664
    printf("Base address to start memory test: (i.e. 0x800000)\n");
    815c:	a5250e04 	addi	r20,r20,-27592
      IOWR_32DIRECT(memory_base, offset, 0x12345678);
    8160:	ad559e04 	addi	r21,r21,22136
    ch = alt_getchar();
    putchar(ch);
    if(ch == 'q' || ch == 'Q')
    8164:	047ff7c4 	movi	r17,-33
    printf("\nPress enter to continue or 'q' to quit.\n");
    8168:	9809883a 	mov	r4,r19
    816c:	00084cc0 	call	84cc <puts>
    ch = alt_getchar();
    8170:	0008ff80 	call	8ff8 <alt_getchar>
    putchar(ch);
    8174:	1009883a 	mov	r4,r2
    ch = alt_getchar();
    8178:	1021883a 	mov	r16,r2
    putchar(ch);
    817c:	00084340 	call	8434 <putchar>
    if(ch == 'q' || ch == 'Q')
    8180:	8444703a 	and	r2,r16,r17
    8184:	10801458 	cmpnei	r2,r2,81
    8188:	10007526 	beq	r2,zero,8360 <main+0x294>
        printf( "\nExiting from Memory Test.\n");
	/* Add this so that it will return back to command prompt */
	printf( "%c", 0x4);
        break;
    }
    else if (ch == '\n')
    818c:	840002a0 	cmpeqi	r16,r16,10
    8190:	803ff526 	beq	r16,zero,8168 <main+0x9c>
    printf("End Address:\n");
    8194:	04800074 	movhi	r18,1
    8198:	94a52f04 	addi	r18,r18,-27460
    printf("Base address to start memory test: (i.e. 0x800000)\n");
    819c:	a009883a 	mov	r4,r20
    81a0:	00084cc0 	call	84cc <puts>
    printf(">");
    81a4:	01000f84 	movi	r4,62
    81a8:	00084340 	call	8434 <putchar>
    GetInputString( line, sizeof(line), stdin );
    81ac:	d0a00117 	ldw	r2,-32764(gp)
    81b0:	01400304 	movi	r5,12
    81b4:	d9000104 	addi	r4,sp,4
    81b8:	11800117 	ldw	r6,4(r2)
    81bc:	000805c0 	call	805c <GetInputString>
    if((*base_address = strtol(line, &pend, 16)) < 0)
    81c0:	01800404 	movi	r6,16
    81c4:	d80b883a 	mov	r5,sp
    81c8:	d9000104 	addi	r4,sp,4
    81cc:	00087140 	call	8714 <strtol>
    81d0:	1021883a 	mov	r16,r2
    81d4:	1000060e 	bge	r2,zero,81f0 <main+0x124>
      printf("%s\n", line);
    81d8:	d9000104 	addi	r4,sp,4
    81dc:	00084cc0 	call	84cc <puts>
      printf(" -ERROR: Invalid base address entered.  Address must be in the form '0x800000'\n\n");
    81e0:	01000074 	movhi	r4,1
    81e4:	21251b04 	addi	r4,r4,-27540
      printf(" -ERROR: End address must be greater than the start address\n\n");
    81e8:	00084cc0 	call	84cc <puts>
      continue;
    81ec:	003feb06 	br	819c <main+0xd0>
    printf("End Address:\n");
    81f0:	9009883a 	mov	r4,r18
    81f4:	00084cc0 	call	84cc <puts>
    printf(">");
    81f8:	01000f84 	movi	r4,62
    81fc:	00084340 	call	8434 <putchar>
    GetInputString( line, sizeof(line), stdin );
    8200:	d0a00117 	ldw	r2,-32764(gp)
    8204:	01400304 	movi	r5,12
    8208:	d9000104 	addi	r4,sp,4
    820c:	11800117 	ldw	r6,4(r2)
    8210:	000805c0 	call	805c <GetInputString>
    if((*end_address = strtol(line, &pend, 16)) < 0)
    8214:	01800404 	movi	r6,16
    8218:	d80b883a 	mov	r5,sp
    821c:	d9000104 	addi	r4,sp,4
    8220:	00087140 	call	8714 <strtol>
    8224:	1023883a 	mov	r17,r2
    8228:	1000030e 	bge	r2,zero,8238 <main+0x16c>
      printf(" -ERROR: Invalid end address entered.  Address must be in the form '0x8FFFFF'\n\n");
    822c:	01000074 	movhi	r4,1
    8230:	21253304 	addi	r4,r4,-27444
    8234:	003fec06 	br	81e8 <main+0x11c>
    if (*end_address <= *base_address)
    8238:	80800316 	blt	r16,r2,8248 <main+0x17c>
      printf(" -ERROR: End address must be greater than the start address\n\n");
    823c:	01000074 	movhi	r4,1
    8240:	21254704 	addi	r4,r4,-27364
    8244:	003fe806 	br	81e8 <main+0x11c>
  printf("\n");
    8248:	01000284 	movi	r4,10
  memory_size = (memory_end - memory_base);
    824c:	142dc83a 	sub	r22,r2,r16
  printf("\n");
    8250:	00084340 	call	8434 <putchar>
  printf("Testing RAM from 0x%X to 0x%X\n\n", memory_base, (memory_base + memory_size));
    8254:	01000074 	movhi	r4,1
    8258:	880d883a 	mov	r6,r17
    825c:	800b883a 	mov	r5,r16
    8260:	21255704 	addi	r4,r4,-27300
      printf("Writing data 0x12345678 in addr 0x%X\n", memory_base+offset);
    8264:	05c00074 	movhi	r23,1
  printf("Testing RAM from 0x%X to 0x%X\n\n", memory_base, (memory_base + memory_size));
    8268:	00083e40 	call	83e4 <printf>
  for (offset = 0; offset <= memory_size; offset+=4)
    826c:	0025883a 	mov	r18,zero
      printf("Writing data 0x12345678 in addr 0x%X\n", memory_base+offset);
    8270:	bde55f04 	addi	r23,r23,-27268
  for (offset = 0; offset <= memory_size; offset+=4)
    8274:	b480280e 	bge	r22,r18,8318 <main+0x24c>
      printf("Read data 0x%X from addr 0x%X\n", ret_val, memory_base+offset);
    8278:	05c00074 	movhi	r23,1
  for (offset = 0; offset <= memory_size; offset+=4)
    827c:	0025883a 	mov	r18,zero
      printf("Read data 0x%X from addr 0x%X\n", ret_val, memory_base+offset);
    8280:	bde56904 	addi	r23,r23,-27228
  for (offset = 0; offset <= memory_size; offset+=4)
    8284:	b4802a0e 	bge	r22,r18,8330 <main+0x264>
      printf("Read secure data 0x%X from addr 0x%X\n", ret_val, offset);
    8288:	05c00074 	movhi	r23,1
    if((*base_address = strtol(line, &pend, 16)) < 0)
    828c:	8025883a 	mov	r18,r16
      printf("Read secure data 0x%X from addr 0x%X\n", ret_val, offset);
    8290:	bde57104 	addi	r23,r23,-27196
      ret_val = ALT_CI_CUSTOM_SECURE_MEM_INSTRUCTIONS(0, 0, offset);
    8294:	048bc032 	custom	0,r5,zero,r18
      printf("Read secure data 0x%X from addr 0x%X\n", ret_val, offset);
    8298:	900d883a 	mov	r6,r18
    829c:	b809883a 	mov	r4,r23
  for (offset = memory_base; offset <= memory_end; offset +=4)
    82a0:	94800104 	addi	r18,r18,4
      printf("Read secure data 0x%X from addr 0x%X\n", ret_val, offset);
    82a4:	00083e40 	call	83e4 <printf>
  for (offset = memory_base; offset <= memory_end; offset +=4)
    82a8:	8cbffa0e 	bge	r17,r18,8294 <main+0x1c8>
      ALT_CI_CUSTOM_SECURE_MEM_INSTRUCTIONS(1, 0xDEADBEEF, offset);
    82ac:	0737abb4 	movhi	fp,57006
      printf("Writing secure data 0xDEADBEEF in addr 0x%X\n", offset);
    82b0:	05c00074 	movhi	r23,1
    if((*base_address = strtol(line, &pend, 16)) < 0)
    82b4:	8025883a 	mov	r18,r16
      ALT_CI_CUSTOM_SECURE_MEM_INSTRUCTIONS(1, 0xDEADBEEF, offset);
    82b8:	e72fbbc4 	addi	fp,fp,-16657
      printf("Writing secure data 0xDEADBEEF in addr 0x%X\n", offset);
    82bc:	bde57b04 	addi	r23,r23,-27156
      ALT_CI_CUSTOM_SECURE_MEM_INSTRUCTIONS(1, 0xDEADBEEF, offset);
    82c0:	e485c072 	custom	1,r2,fp,r18
      printf("Writing secure data 0xDEADBEEF in addr 0x%X\n", offset);
    82c4:	900b883a 	mov	r5,r18
    82c8:	b809883a 	mov	r4,r23
  for (offset = memory_base; offset <= memory_end; offset +=4)
    82cc:	94800104 	addi	r18,r18,4
      printf("Writing secure data 0xDEADBEEF in addr 0x%X\n", offset);
    82d0:	00083e40 	call	83e4 <printf>
  for (offset = memory_base; offset <= memory_end; offset +=4)
    82d4:	8cbffa0e 	bge	r17,r18,82c0 <main+0x1f4>
  for (offset = 0; offset <= memory_size; offset+=4)
    82d8:	05fffff4 	movhi	r23,65535
      printf("Read data 0x%X from addr 0x%X\n", ret_val, 0xB000+offset);
    82dc:	07000074 	movhi	fp,1
    82e0:	04ac0014 	movui	r18,45056
  for (offset = 0; offset <= memory_size; offset+=4)
    82e4:	bdd40004 	addi	r23,r23,20480
      printf("Read data 0x%X from addr 0x%X\n", ret_val, 0xB000+offset);
    82e8:	e7256904 	addi	fp,fp,-27228
  for (offset = 0; offset <= memory_size; offset+=4)
    82ec:	95c5883a 	add	r2,r18,r23
    82f0:	b080150e 	bge	r22,r2,8348 <main+0x27c>
      printf("Read secure data 0x%X from addr 0x%X\n", ret_val, offset);
    82f4:	04800074 	movhi	r18,1
    82f8:	94a57104 	addi	r18,r18,-27196
      ret_val = ALT_CI_CUSTOM_SECURE_MEM_INSTRUCTIONS(0, 0, offset);
    82fc:	040bc032 	custom	0,r5,zero,r16
      printf("Read secure data 0x%X from addr 0x%X\n", ret_val, offset);
    8300:	800d883a 	mov	r6,r16
    8304:	9009883a 	mov	r4,r18
  for (offset = memory_base; offset <= memory_end; offset +=4)
    8308:	84000104 	addi	r16,r16,4
      printf("Read secure data 0x%X from addr 0x%X\n", ret_val, offset);
    830c:	00083e40 	call	83e4 <printf>
  for (offset = memory_base; offset <= memory_end; offset +=4)
    8310:	8c3ffa0e 	bge	r17,r16,82fc <main+0x230>
    8314:	003f9306 	br	8164 <main+0x98>
      IOWR_32DIRECT(memory_base, offset, 0x12345678);
    8318:	940b883a 	add	r5,r18,r16
    831c:	2d400035 	stwio	r21,0(r5)
      printf("Writing data 0x12345678 in addr 0x%X\n", memory_base+offset);
    8320:	b809883a 	mov	r4,r23
    8324:	00083e40 	call	83e4 <printf>
  for (offset = 0; offset <= memory_size; offset+=4)
    8328:	94800104 	addi	r18,r18,4
    832c:	003fd106 	br	8274 <main+0x1a8>
      ret_val = IORD_32DIRECT(memory_base, offset);
    8330:	940d883a 	add	r6,r18,r16
    8334:	31400037 	ldwio	r5,0(r6)
      printf("Read data 0x%X from addr 0x%X\n", ret_val, memory_base+offset);
    8338:	b809883a 	mov	r4,r23
    833c:	00083e40 	call	83e4 <printf>
  for (offset = 0; offset <= memory_size; offset+=4)
    8340:	94800104 	addi	r18,r18,4
    8344:	003fcf06 	br	8284 <main+0x1b8>
      ret_val = IORD_32DIRECT(0xB000, offset);
    8348:	91400037 	ldwio	r5,0(r18)
      printf("Read data 0x%X from addr 0x%X\n", ret_val, 0xB000+offset);
    834c:	900d883a 	mov	r6,r18
    8350:	e009883a 	mov	r4,fp
    8354:	00083e40 	call	83e4 <printf>
  for (offset = 0; offset <= memory_size; offset+=4)
    8358:	94800104 	addi	r18,r18,4
    835c:	003fe306 	br	82ec <main+0x220>
        printf( "\nExiting from Memory Test.\n");
    8360:	01000074 	movhi	r4,1
    8364:	21250704 	addi	r4,r4,-27620
    8368:	00084cc0 	call	84cc <puts>
	printf( "%c", 0x4);
    836c:	01000104 	movi	r4,4
    8370:	00084340 	call	8434 <putchar>
    {
        TestRam();
    }
  }
  return (0);
}
    8374:	0005883a 	mov	r2,zero
    8378:	dfc00d17 	ldw	ra,52(sp)
    837c:	df000c17 	ldw	fp,48(sp)
    8380:	ddc00b17 	ldw	r23,44(sp)
    8384:	dd800a17 	ldw	r22,40(sp)
    8388:	dd400917 	ldw	r21,36(sp)
    838c:	dd000817 	ldw	r20,32(sp)
    8390:	dcc00717 	ldw	r19,28(sp)
    8394:	dc800617 	ldw	r18,24(sp)
    8398:	dc400517 	ldw	r17,20(sp)
    839c:	dc000417 	ldw	r16,16(sp)
    83a0:	dec00e04 	addi	sp,sp,56
    83a4:	f800283a 	ret

000083a8 <_printf_r>:
    83a8:	defffd04 	addi	sp,sp,-12
    83ac:	dfc00015 	stw	ra,0(sp)
    83b0:	d9800115 	stw	r6,4(sp)
    83b4:	d9c00215 	stw	r7,8(sp)
    83b8:	21800217 	ldw	r6,8(r4)
    83bc:	00c00074 	movhi	r3,1
    83c0:	18e32a04 	addi	r3,r3,-29528
    83c4:	30c00115 	stw	r3,4(r6)
    83c8:	280d883a 	mov	r6,r5
    83cc:	21400217 	ldw	r5,8(r4)
    83d0:	d9c00104 	addi	r7,sp,4
    83d4:	00087980 	call	8798 <___vfprintf_internal_r>
    83d8:	dfc00017 	ldw	ra,0(sp)
    83dc:	dec00304 	addi	sp,sp,12
    83e0:	f800283a 	ret

000083e4 <printf>:
    83e4:	defffc04 	addi	sp,sp,-16
    83e8:	dfc00015 	stw	ra,0(sp)
    83ec:	d9400115 	stw	r5,4(sp)
    83f0:	d9800215 	stw	r6,8(sp)
    83f4:	d9c00315 	stw	r7,12(sp)
    83f8:	00800074 	movhi	r2,1
    83fc:	10e67b17 	ldw	r3,-26132(r2)
    8400:	00800074 	movhi	r2,1
    8404:	10a32a04 	addi	r2,r2,-29528
    8408:	19400217 	ldw	r5,8(r3)
    840c:	d9800104 	addi	r6,sp,4
    8410:	28800115 	stw	r2,4(r5)
    8414:	200b883a 	mov	r5,r4
    8418:	19000217 	ldw	r4,8(r3)
    841c:	0008c840 	call	8c84 <__vfprintf_internal>
    8420:	dfc00017 	ldw	ra,0(sp)
    8424:	dec00404 	addi	sp,sp,16
    8428:	f800283a 	ret

0000842c <_putchar_r>:
    842c:	21800217 	ldw	r6,8(r4)
    8430:	0008da01 	jmpi	8da0 <_putc_r>

00008434 <putchar>:
    8434:	00800074 	movhi	r2,1
    8438:	10a67b17 	ldw	r2,-26132(r2)
    843c:	200b883a 	mov	r5,r4
    8440:	11800217 	ldw	r6,8(r2)
    8444:	1009883a 	mov	r4,r2
    8448:	0008da01 	jmpi	8da0 <_putc_r>

0000844c <_puts_r>:
    844c:	defffd04 	addi	sp,sp,-12
    8450:	dc000015 	stw	r16,0(sp)
    8454:	2021883a 	mov	r16,r4
    8458:	2809883a 	mov	r4,r5
    845c:	dfc00215 	stw	ra,8(sp)
    8460:	dc400115 	stw	r17,4(sp)
    8464:	2823883a 	mov	r17,r5
    8468:	00084dc0 	call	84dc <strlen>
    846c:	81400217 	ldw	r5,8(r16)
    8470:	00c00074 	movhi	r3,1
    8474:	18e32a04 	addi	r3,r3,-29528
    8478:	28c00115 	stw	r3,4(r5)
    847c:	100f883a 	mov	r7,r2
    8480:	880d883a 	mov	r6,r17
    8484:	8009883a 	mov	r4,r16
    8488:	0008ca80 	call	8ca8 <__sfvwrite_small_dev>
    848c:	10ffffe0 	cmpeqi	r3,r2,-1
    8490:	1800091e 	bne	r3,zero,84b8 <_puts_r+0x6c>
    8494:	81400217 	ldw	r5,8(r16)
    8498:	01800074 	movhi	r6,1
    849c:	01c00044 	movi	r7,1
    84a0:	28800117 	ldw	r2,4(r5)
    84a4:	31a57a04 	addi	r6,r6,-27160
    84a8:	8009883a 	mov	r4,r16
    84ac:	103ee83a 	callr	r2
    84b0:	10bfffe0 	cmpeqi	r2,r2,-1
    84b4:	0085c83a 	sub	r2,zero,r2
    84b8:	dfc00217 	ldw	ra,8(sp)
    84bc:	dc400117 	ldw	r17,4(sp)
    84c0:	dc000017 	ldw	r16,0(sp)
    84c4:	dec00304 	addi	sp,sp,12
    84c8:	f800283a 	ret

000084cc <puts>:
    84cc:	00800074 	movhi	r2,1
    84d0:	200b883a 	mov	r5,r4
    84d4:	11267b17 	ldw	r4,-26132(r2)
    84d8:	000844c1 	jmpi	844c <_puts_r>

000084dc <strlen>:
    84dc:	2005883a 	mov	r2,r4
    84e0:	10c00007 	ldb	r3,0(r2)
    84e4:	1800021e 	bne	r3,zero,84f0 <strlen+0x14>
    84e8:	1105c83a 	sub	r2,r2,r4
    84ec:	f800283a 	ret
    84f0:	10800044 	addi	r2,r2,1
    84f4:	003ffa06 	br	84e0 <strlen+0x4>

000084f8 <_strtol_l.constprop.0>:
    84f8:	defff604 	addi	sp,sp,-40
    84fc:	dfc00915 	stw	ra,36(sp)
    8500:	df000815 	stw	fp,32(sp)
    8504:	ddc00715 	stw	r23,28(sp)
    8508:	dd800615 	stw	r22,24(sp)
    850c:	dd400515 	stw	r21,20(sp)
    8510:	dd000415 	stw	r20,16(sp)
    8514:	dcc00315 	stw	r19,12(sp)
    8518:	dc800215 	stw	r18,8(sp)
    851c:	dc400115 	stw	r17,4(sp)
    8520:	dc000015 	stw	r16,0(sp)
    8524:	38800060 	cmpeqi	r2,r7,1
    8528:	1000031e 	bne	r2,zero,8538 <_strtol_l.constprop.0+0x40>
    852c:	38800970 	cmpltui	r2,r7,37
    8530:	3825883a 	mov	r18,r7
    8534:	1000101e 	bne	r2,zero,8578 <_strtol_l.constprop.0+0x80>
    8538:	0008c9c0 	call	8c9c <__errno>
    853c:	00c00584 	movi	r3,22
    8540:	10c00015 	stw	r3,0(r2)
    8544:	0005883a 	mov	r2,zero
    8548:	dfc00917 	ldw	ra,36(sp)
    854c:	df000817 	ldw	fp,32(sp)
    8550:	ddc00717 	ldw	r23,28(sp)
    8554:	dd800617 	ldw	r22,24(sp)
    8558:	dd400517 	ldw	r21,20(sp)
    855c:	dd000417 	ldw	r20,16(sp)
    8560:	dcc00317 	ldw	r19,12(sp)
    8564:	dc800217 	ldw	r18,8(sp)
    8568:	dc400117 	ldw	r17,4(sp)
    856c:	dc000017 	ldw	r16,0(sp)
    8570:	dec00a04 	addi	sp,sp,40
    8574:	f800283a 	ret
    8578:	202f883a 	mov	r23,r4
    857c:	2829883a 	mov	r20,r5
    8580:	302b883a 	mov	r21,r6
    8584:	2823883a 	mov	r17,r5
    8588:	8807883a 	mov	r3,r17
    858c:	8c000003 	ldbu	r16,0(r17)
    8590:	00800074 	movhi	r2,1
    8594:	8c400044 	addi	r17,r17,1
    8598:	8085883a 	add	r2,r16,r2
    859c:	10a58743 	ldbu	r2,-27107(r2)
    85a0:	1080020c 	andi	r2,r2,8
    85a4:	103ff81e 	bne	r2,zero,8588 <_strtol_l.constprop.0+0x90>
    85a8:	80800b58 	cmpnei	r2,r16,45
    85ac:	10002a1e 	bne	r2,zero,8658 <_strtol_l.constprop.0+0x160>
    85b0:	8c000003 	ldbu	r16,0(r17)
    85b4:	05800044 	movi	r22,1
    85b8:	1c400084 	addi	r17,r3,2
    85bc:	90004a26 	beq	r18,zero,86e8 <_strtol_l.constprop.0+0x1f0>
    85c0:	90800420 	cmpeqi	r2,r18,16
    85c4:	10000926 	beq	r2,zero,85ec <_strtol_l.constprop.0+0xf4>
    85c8:	80800c20 	cmpeqi	r2,r16,48
    85cc:	10000726 	beq	r2,zero,85ec <_strtol_l.constprop.0+0xf4>
    85d0:	88800003 	ldbu	r2,0(r17)
    85d4:	108037cc 	andi	r2,r2,223
    85d8:	10801618 	cmpnei	r2,r2,88
    85dc:	10003e1e 	bne	r2,zero,86d8 <_strtol_l.constprop.0+0x1e0>
    85e0:	8c000043 	ldbu	r16,1(r17)
    85e4:	04800404 	movi	r18,16
    85e8:	8c400084 	addi	r17,r17,2
    85ec:	04e00034 	movhi	r19,32768
    85f0:	9cffffc4 	addi	r19,r19,-1
    85f4:	b4e7883a 	add	r19,r22,r19
    85f8:	900b883a 	mov	r5,r18
    85fc:	9809883a 	mov	r4,r19
    8600:	0008f9c0 	call	8f9c <__umodsi3>
    8604:	900b883a 	mov	r5,r18
    8608:	9809883a 	mov	r4,r19
    860c:	1039883a 	mov	fp,r2
    8610:	0008f380 	call	8f38 <__udivsi3>
    8614:	0011883a 	mov	r8,zero
    8618:	0007883a 	mov	r3,zero
    861c:	81fff404 	addi	r7,r16,-48
    8620:	390002a8 	cmpgeui	r4,r7,10
    8624:	2000121e 	bne	r4,zero,8670 <_strtol_l.constprop.0+0x178>
    8628:	3821883a 	mov	r16,r7
    862c:	84801c0e 	bge	r16,r18,86a0 <_strtol_l.constprop.0+0x1a8>
    8630:	40001916 	blt	r8,zero,8698 <_strtol_l.constprop.0+0x1a0>
    8634:	10c01836 	bltu	r2,r3,8698 <_strtol_l.constprop.0+0x1a0>
    8638:	10c0011e 	bne	r2,r3,8640 <_strtol_l.constprop.0+0x148>
    863c:	e4001616 	blt	fp,r16,8698 <_strtol_l.constprop.0+0x1a0>
    8640:	90c7383a 	mul	r3,r18,r3
    8644:	02000044 	movi	r8,1
    8648:	80c7883a 	add	r3,r16,r3
    864c:	8c400044 	addi	r17,r17,1
    8650:	8c3fffc3 	ldbu	r16,-1(r17)
    8654:	003ff106 	br	861c <_strtol_l.constprop.0+0x124>
    8658:	80800ad8 	cmpnei	r2,r16,43
    865c:	1000021e 	bne	r2,zero,8668 <_strtol_l.constprop.0+0x170>
    8660:	8c000003 	ldbu	r16,0(r17)
    8664:	1c400084 	addi	r17,r3,2
    8668:	002d883a 	mov	r22,zero
    866c:	003fd306 	br	85bc <_strtol_l.constprop.0+0xc4>
    8670:	813fefc4 	addi	r4,r16,-65
    8674:	210006a8 	cmpgeui	r4,r4,26
    8678:	2000021e 	bne	r4,zero,8684 <_strtol_l.constprop.0+0x18c>
    867c:	843ff244 	addi	r16,r16,-55
    8680:	003fea06 	br	862c <_strtol_l.constprop.0+0x134>
    8684:	813fe7c4 	addi	r4,r16,-97
    8688:	210006a8 	cmpgeui	r4,r4,26
    868c:	2000041e 	bne	r4,zero,86a0 <_strtol_l.constprop.0+0x1a8>
    8690:	843fea44 	addi	r16,r16,-87
    8694:	003fe506 	br	862c <_strtol_l.constprop.0+0x134>
    8698:	023fffc4 	movi	r8,-1
    869c:	003feb06 	br	864c <_strtol_l.constprop.0+0x154>
    86a0:	4000060e 	bge	r8,zero,86bc <_strtol_l.constprop.0+0x1c4>
    86a4:	00800884 	movi	r2,34
    86a8:	b8800015 	stw	r2,0(r23)
    86ac:	9807883a 	mov	r3,r19
    86b0:	a800061e 	bne	r21,zero,86cc <_strtol_l.constprop.0+0x1d4>
    86b4:	1805883a 	mov	r2,r3
    86b8:	003fa306 	br	8548 <_strtol_l.constprop.0+0x50>
    86bc:	b0000126 	beq	r22,zero,86c4 <_strtol_l.constprop.0+0x1cc>
    86c0:	00c7c83a 	sub	r3,zero,r3
    86c4:	a83ffb26 	beq	r21,zero,86b4 <_strtol_l.constprop.0+0x1bc>
    86c8:	40000126 	beq	r8,zero,86d0 <_strtol_l.constprop.0+0x1d8>
    86cc:	8d3fffc4 	addi	r20,r17,-1
    86d0:	ad000015 	stw	r20,0(r21)
    86d4:	003ff706 	br	86b4 <_strtol_l.constprop.0+0x1bc>
    86d8:	04000c04 	movi	r16,48
    86dc:	903fc31e 	bne	r18,zero,85ec <_strtol_l.constprop.0+0xf4>
    86e0:	04800204 	movi	r18,8
    86e4:	003fc106 	br	85ec <_strtol_l.constprop.0+0xf4>
    86e8:	80800c20 	cmpeqi	r2,r16,48
    86ec:	103fb81e 	bne	r2,zero,85d0 <_strtol_l.constprop.0+0xd8>
    86f0:	04800284 	movi	r18,10
    86f4:	003fbd06 	br	85ec <_strtol_l.constprop.0+0xf4>

000086f8 <_strtol_r>:
    86f8:	00084f81 	jmpi	84f8 <_strtol_l.constprop.0>

000086fc <strtol_l>:
    86fc:	00800074 	movhi	r2,1
    8700:	300f883a 	mov	r7,r6
    8704:	280d883a 	mov	r6,r5
    8708:	200b883a 	mov	r5,r4
    870c:	11267b17 	ldw	r4,-26132(r2)
    8710:	00084f81 	jmpi	84f8 <_strtol_l.constprop.0>

00008714 <strtol>:
    8714:	00800074 	movhi	r2,1
    8718:	300f883a 	mov	r7,r6
    871c:	280d883a 	mov	r6,r5
    8720:	200b883a 	mov	r5,r4
    8724:	11267b17 	ldw	r4,-26132(r2)
    8728:	00084f81 	jmpi	84f8 <_strtol_l.constprop.0>

0000872c <print_repeat>:
    872c:	defffb04 	addi	sp,sp,-20
    8730:	dc800315 	stw	r18,12(sp)
    8734:	dc400215 	stw	r17,8(sp)
    8738:	dc000115 	stw	r16,4(sp)
    873c:	dfc00415 	stw	ra,16(sp)
    8740:	2025883a 	mov	r18,r4
    8744:	2823883a 	mov	r17,r5
    8748:	d9800005 	stb	r6,0(sp)
    874c:	3821883a 	mov	r16,r7
    8750:	04000716 	blt	zero,r16,8770 <print_repeat+0x44>
    8754:	0005883a 	mov	r2,zero
    8758:	dfc00417 	ldw	ra,16(sp)
    875c:	dc800317 	ldw	r18,12(sp)
    8760:	dc400217 	ldw	r17,8(sp)
    8764:	dc000117 	ldw	r16,4(sp)
    8768:	dec00504 	addi	sp,sp,20
    876c:	f800283a 	ret
    8770:	88800117 	ldw	r2,4(r17)
    8774:	01c00044 	movi	r7,1
    8778:	d80d883a 	mov	r6,sp
    877c:	880b883a 	mov	r5,r17
    8780:	9009883a 	mov	r4,r18
    8784:	103ee83a 	callr	r2
    8788:	843fffc4 	addi	r16,r16,-1
    878c:	103ff026 	beq	r2,zero,8750 <print_repeat+0x24>
    8790:	00bfffc4 	movi	r2,-1
    8794:	003ff006 	br	8758 <print_repeat+0x2c>

00008798 <___vfprintf_internal_r>:
    8798:	deffe604 	addi	sp,sp,-104
    879c:	df001815 	stw	fp,96(sp)
    87a0:	ddc01715 	stw	r23,92(sp)
    87a4:	dd801615 	stw	r22,88(sp)
    87a8:	dd001415 	stw	r20,80(sp)
    87ac:	dcc01315 	stw	r19,76(sp)
    87b0:	dc801215 	stw	r18,72(sp)
    87b4:	dc401115 	stw	r17,68(sp)
    87b8:	dc001015 	stw	r16,64(sp)
    87bc:	dfc01915 	stw	ra,100(sp)
    87c0:	dd401515 	stw	r21,84(sp)
    87c4:	2021883a 	mov	r16,r4
    87c8:	282f883a 	mov	r23,r5
    87cc:	d9800515 	stw	r6,20(sp)
    87d0:	3839883a 	mov	fp,r7
    87d4:	002d883a 	mov	r22,zero
    87d8:	d8000215 	stw	zero,8(sp)
    87dc:	0027883a 	mov	r19,zero
    87e0:	0029883a 	mov	r20,zero
    87e4:	0025883a 	mov	r18,zero
    87e8:	0023883a 	mov	r17,zero
    87ec:	d8000115 	stw	zero,4(sp)
    87f0:	d8000015 	stw	zero,0(sp)
    87f4:	0005883a 	mov	r2,zero
    87f8:	00000206 	br	8804 <___vfprintf_internal_r+0x6c>
    87fc:	118000e0 	cmpeqi	r6,r2,3
    8800:	30003d1e 	bne	r6,zero,88f8 <___vfprintf_internal_r+0x160>
    8804:	d8c00517 	ldw	r3,20(sp)
    8808:	19000003 	ldbu	r4,0(r3)
    880c:	18c00044 	addi	r3,r3,1
    8810:	d8c00515 	stw	r3,20(sp)
    8814:	21403fcc 	andi	r5,r4,255
    8818:	2940201c 	xori	r5,r5,128
    881c:	297fe004 	addi	r5,r5,-128
    8820:	28001426 	beq	r5,zero,8874 <___vfprintf_internal_r+0xdc>
    8824:	118000a0 	cmpeqi	r6,r2,2
    8828:	3000231e 	bne	r6,zero,88b8 <___vfprintf_internal_r+0x120>
    882c:	118000c8 	cmpgei	r6,r2,3
    8830:	303ff21e 	bne	r6,zero,87fc <___vfprintf_internal_r+0x64>
    8834:	10000426 	beq	r2,zero,8848 <___vfprintf_internal_r+0xb0>
    8838:	10800060 	cmpeqi	r2,r2,1
    883c:	10001a1e 	bne	r2,zero,88a8 <___vfprintf_internal_r+0x110>
    8840:	00800084 	movi	r2,2
    8844:	003fef06 	br	8804 <___vfprintf_internal_r+0x6c>
    8848:	29400960 	cmpeqi	r5,r5,37
    884c:	2800f61e 	bne	r5,zero,8c28 <___vfprintf_internal_r+0x490>
    8850:	b8800117 	ldw	r2,4(r23)
    8854:	d9000805 	stb	r4,32(sp)
    8858:	01c00044 	movi	r7,1
    885c:	d9800804 	addi	r6,sp,32
    8860:	b80b883a 	mov	r5,r23
    8864:	8009883a 	mov	r4,r16
    8868:	103ee83a 	callr	r2
    886c:	10001b26 	beq	r2,zero,88dc <___vfprintf_internal_r+0x144>
    8870:	05bfffc4 	movi	r22,-1
    8874:	b005883a 	mov	r2,r22
    8878:	dfc01917 	ldw	ra,100(sp)
    887c:	df001817 	ldw	fp,96(sp)
    8880:	ddc01717 	ldw	r23,92(sp)
    8884:	dd801617 	ldw	r22,88(sp)
    8888:	dd401517 	ldw	r21,84(sp)
    888c:	dd001417 	ldw	r20,80(sp)
    8890:	dcc01317 	ldw	r19,76(sp)
    8894:	dc801217 	ldw	r18,72(sp)
    8898:	dc401117 	ldw	r17,68(sp)
    889c:	dc001017 	ldw	r16,64(sp)
    88a0:	dec01a04 	addi	sp,sp,104
    88a4:	f800283a 	ret
    88a8:	28800c20 	cmpeqi	r2,r5,48
    88ac:	1000e71e 	bne	r2,zero,8c4c <___vfprintf_internal_r+0x4b4>
    88b0:	28800958 	cmpnei	r2,r5,37
    88b4:	103fe626 	beq	r2,zero,8850 <___vfprintf_internal_r+0xb8>
    88b8:	20bff404 	addi	r2,r4,-48
    88bc:	10803fcc 	andi	r2,r2,255
    88c0:	118002a8 	cmpgeui	r6,r2,10
    88c4:	3000091e 	bne	r6,zero,88ec <___vfprintf_internal_r+0x154>
    88c8:	893fffe0 	cmpeqi	r4,r17,-1
    88cc:	2000051e 	bne	r4,zero,88e4 <___vfprintf_internal_r+0x14c>
    88d0:	8c4002a4 	muli	r17,r17,10
    88d4:	1463883a 	add	r17,r2,r17
    88d8:	003fd906 	br	8840 <___vfprintf_internal_r+0xa8>
    88dc:	b5800044 	addi	r22,r22,1
    88e0:	003fc806 	br	8804 <___vfprintf_internal_r+0x6c>
    88e4:	0023883a 	mov	r17,zero
    88e8:	003ffa06 	br	88d4 <___vfprintf_internal_r+0x13c>
    88ec:	28800ba0 	cmpeqi	r2,r5,46
    88f0:	1000db1e 	bne	r2,zero,8c60 <___vfprintf_internal_r+0x4c8>
    88f4:	00800084 	movi	r2,2
    88f8:	213ff404 	addi	r4,r4,-48
    88fc:	21003fcc 	andi	r4,r4,255
    8900:	218002a8 	cmpgeui	r6,r4,10
    8904:	3000071e 	bne	r6,zero,8924 <___vfprintf_internal_r+0x18c>
    8908:	917fffe0 	cmpeqi	r5,r18,-1
    890c:	2800031e 	bne	r5,zero,891c <___vfprintf_internal_r+0x184>
    8910:	948002a4 	muli	r18,r18,10
    8914:	24a5883a 	add	r18,r4,r18
    8918:	003fba06 	br	8804 <___vfprintf_internal_r+0x6c>
    891c:	0025883a 	mov	r18,zero
    8920:	003ffc06 	br	8914 <___vfprintf_internal_r+0x17c>
    8924:	28801b20 	cmpeqi	r2,r5,108
    8928:	1000cb1e 	bne	r2,zero,8c58 <___vfprintf_internal_r+0x4c0>
    892c:	90bfffe0 	cmpeqi	r2,r18,-1
    8930:	10000f1e 	bne	r2,zero,8970 <___vfprintf_internal_r+0x1d8>
    8934:	d8000015 	stw	zero,0(sp)
    8938:	28801be0 	cmpeqi	r2,r5,111
    893c:	1000ca1e 	bne	r2,zero,8c68 <___vfprintf_internal_r+0x4d0>
    8940:	28801c08 	cmpgei	r2,r5,112
    8944:	1000171e 	bne	r2,zero,89a4 <___vfprintf_internal_r+0x20c>
    8948:	288018e0 	cmpeqi	r2,r5,99
    894c:	10009f1e 	bne	r2,zero,8bcc <___vfprintf_internal_r+0x434>
    8950:	28801908 	cmpgei	r2,r5,100
    8954:	1000081e 	bne	r2,zero,8978 <___vfprintf_internal_r+0x1e0>
    8958:	29401620 	cmpeqi	r5,r5,88
    895c:	283fa526 	beq	r5,zero,87f4 <___vfprintf_internal_r+0x5c>
    8960:	00800044 	movi	r2,1
    8964:	d8800215 	stw	r2,8(sp)
    8968:	05000404 	movi	r20,16
    896c:	0000bf06 	br	8c6c <___vfprintf_internal_r+0x4d4>
    8970:	04800044 	movi	r18,1
    8974:	003ff006 	br	8938 <___vfprintf_internal_r+0x1a0>
    8978:	28801920 	cmpeqi	r2,r5,100
    897c:	1000021e 	bne	r2,zero,8988 <___vfprintf_internal_r+0x1f0>
    8980:	29401a60 	cmpeqi	r5,r5,105
    8984:	283f9b26 	beq	r5,zero,87f4 <___vfprintf_internal_r+0x5c>
    8988:	e0800104 	addi	r2,fp,4
    898c:	d8800415 	stw	r2,16(sp)
    8990:	9800b626 	beq	r19,zero,8c6c <___vfprintf_internal_r+0x4d4>
    8994:	e5400017 	ldw	r21,0(fp)
    8998:	a8002216 	blt	r21,zero,8a24 <___vfprintf_internal_r+0x28c>
    899c:	04c00044 	movi	r19,1
    89a0:	0000b606 	br	8c7c <___vfprintf_internal_r+0x4e4>
    89a4:	28801d60 	cmpeqi	r2,r5,117
    89a8:	1000b01e 	bne	r2,zero,8c6c <___vfprintf_internal_r+0x4d4>
    89ac:	28801e20 	cmpeqi	r2,r5,120
    89b0:	103fed1e 	bne	r2,zero,8968 <___vfprintf_internal_r+0x1d0>
    89b4:	29401ce0 	cmpeqi	r5,r5,115
    89b8:	283f8e26 	beq	r5,zero,87f4 <___vfprintf_internal_r+0x5c>
    89bc:	e5400017 	ldw	r21,0(fp)
    89c0:	e0800104 	addi	r2,fp,4
    89c4:	d8800315 	stw	r2,12(sp)
    89c8:	a809883a 	mov	r4,r21
    89cc:	00084dc0 	call	84dc <strlen>
    89d0:	888fc83a 	sub	r7,r17,r2
    89d4:	1039883a 	mov	fp,r2
    89d8:	01c0080e 	bge	zero,r7,89fc <___vfprintf_internal_r+0x264>
    89dc:	01800804 	movi	r6,32
    89e0:	b80b883a 	mov	r5,r23
    89e4:	8009883a 	mov	r4,r16
    89e8:	d9c00415 	stw	r7,16(sp)
    89ec:	000872c0 	call	872c <print_repeat>
    89f0:	103f9f1e 	bne	r2,zero,8870 <___vfprintf_internal_r+0xd8>
    89f4:	d9c00417 	ldw	r7,16(sp)
    89f8:	b1ed883a 	add	r22,r22,r7
    89fc:	b8800117 	ldw	r2,4(r23)
    8a00:	e00f883a 	mov	r7,fp
    8a04:	a80d883a 	mov	r6,r21
    8a08:	b80b883a 	mov	r5,r23
    8a0c:	8009883a 	mov	r4,r16
    8a10:	103ee83a 	callr	r2
    8a14:	103f961e 	bne	r2,zero,8870 <___vfprintf_internal_r+0xd8>
    8a18:	b72d883a 	add	r22,r22,fp
    8a1c:	df000317 	ldw	fp,12(sp)
    8a20:	003f7806 	br	8804 <___vfprintf_internal_r+0x6c>
    8a24:	056bc83a 	sub	r21,zero,r21
    8a28:	04c00044 	movi	r19,1
    8a2c:	00c00044 	movi	r3,1
    8a30:	df000804 	addi	fp,sp,32
    8a34:	e00d883a 	mov	r6,fp
    8a38:	a8002e1e 	bne	r21,zero,8af4 <___vfprintf_internal_r+0x35c>
    8a3c:	e185c83a 	sub	r2,fp,r6
    8a40:	d8800315 	stw	r2,12(sp)
    8a44:	9085c83a 	sub	r2,r18,r2
    8a48:	0080090e 	bge	zero,r2,8a70 <___vfprintf_internal_r+0x2d8>
    8a4c:	e085883a 	add	r2,fp,r2
    8a50:	d9001004 	addi	r4,sp,64
    8a54:	e100042e 	bgeu	fp,r4,8a68 <___vfprintf_internal_r+0x2d0>
    8a58:	e7000044 	addi	fp,fp,1
    8a5c:	01000c04 	movi	r4,48
    8a60:	e13fffc5 	stb	r4,-1(fp)
    8a64:	e0bffa1e 	bne	fp,r2,8a50 <___vfprintf_internal_r+0x2b8>
    8a68:	e185c83a 	sub	r2,fp,r6
    8a6c:	d8800315 	stw	r2,12(sp)
    8a70:	d8800317 	ldw	r2,12(sp)
    8a74:	1897883a 	add	r11,r3,r2
    8a78:	d8800017 	ldw	r2,0(sp)
    8a7c:	8aebc83a 	sub	r21,r17,r11
    8a80:	10003126 	beq	r2,zero,8b48 <___vfprintf_internal_r+0x3b0>
    8a84:	18000a26 	beq	r3,zero,8ab0 <___vfprintf_internal_r+0x318>
    8a88:	00800b44 	movi	r2,45
    8a8c:	d88007c5 	stb	r2,31(sp)
    8a90:	b8800117 	ldw	r2,4(r23)
    8a94:	01c00044 	movi	r7,1
    8a98:	d98007c4 	addi	r6,sp,31
    8a9c:	b80b883a 	mov	r5,r23
    8aa0:	8009883a 	mov	r4,r16
    8aa4:	103ee83a 	callr	r2
    8aa8:	103f711e 	bne	r2,zero,8870 <___vfprintf_internal_r+0xd8>
    8aac:	b5800044 	addi	r22,r22,1
    8ab0:	0540070e 	bge	zero,r21,8ad0 <___vfprintf_internal_r+0x338>
    8ab4:	a80f883a 	mov	r7,r21
    8ab8:	01800c04 	movi	r6,48
    8abc:	b80b883a 	mov	r5,r23
    8ac0:	8009883a 	mov	r4,r16
    8ac4:	000872c0 	call	872c <print_repeat>
    8ac8:	103f691e 	bne	r2,zero,8870 <___vfprintf_internal_r+0xd8>
    8acc:	b56d883a 	add	r22,r22,r21
    8ad0:	d8800317 	ldw	r2,12(sp)
    8ad4:	b72d883a 	add	r22,r22,fp
    8ad8:	172bc83a 	sub	r21,r2,fp
    8adc:	af05883a 	add	r2,r21,fp
    8ae0:	b707c83a 	sub	r3,r22,fp
    8ae4:	00802e16 	blt	zero,r2,8ba0 <___vfprintf_internal_r+0x408>
    8ae8:	df000417 	ldw	fp,16(sp)
    8aec:	182d883a 	mov	r22,r3
    8af0:	003f4006 	br	87f4 <___vfprintf_internal_r+0x5c>
    8af4:	a809883a 	mov	r4,r21
    8af8:	a00b883a 	mov	r5,r20
    8afc:	d8c00315 	stw	r3,12(sp)
    8b00:	0008f380 	call	8f38 <__udivsi3>
    8b04:	1509383a 	mul	r4,r2,r20
    8b08:	d8c00317 	ldw	r3,12(sp)
    8b0c:	d9800804 	addi	r6,sp,32
    8b10:	a92bc83a 	sub	r21,r21,r4
    8b14:	a9000288 	cmpgei	r4,r21,10
    8b18:	2000051e 	bne	r4,zero,8b30 <___vfprintf_internal_r+0x398>
    8b1c:	ad400c04 	addi	r21,r21,48
    8b20:	e7000044 	addi	fp,fp,1
    8b24:	e57fffc5 	stb	r21,-1(fp)
    8b28:	102b883a 	mov	r21,r2
    8b2c:	003fc206 	br	8a38 <___vfprintf_internal_r+0x2a0>
    8b30:	d9000217 	ldw	r4,8(sp)
    8b34:	20000226 	beq	r4,zero,8b40 <___vfprintf_internal_r+0x3a8>
    8b38:	ad400dc4 	addi	r21,r21,55
    8b3c:	003ff806 	br	8b20 <___vfprintf_internal_r+0x388>
    8b40:	ad4015c4 	addi	r21,r21,87
    8b44:	003ff606 	br	8b20 <___vfprintf_internal_r+0x388>
    8b48:	0540090e 	bge	zero,r21,8b70 <___vfprintf_internal_r+0x3d8>
    8b4c:	a80f883a 	mov	r7,r21
    8b50:	01800804 	movi	r6,32
    8b54:	b80b883a 	mov	r5,r23
    8b58:	8009883a 	mov	r4,r16
    8b5c:	d8c00615 	stw	r3,24(sp)
    8b60:	000872c0 	call	872c <print_repeat>
    8b64:	103f421e 	bne	r2,zero,8870 <___vfprintf_internal_r+0xd8>
    8b68:	d8c00617 	ldw	r3,24(sp)
    8b6c:	b56d883a 	add	r22,r22,r21
    8b70:	183fd726 	beq	r3,zero,8ad0 <___vfprintf_internal_r+0x338>
    8b74:	00800b44 	movi	r2,45
    8b78:	d88007c5 	stb	r2,31(sp)
    8b7c:	b8800117 	ldw	r2,4(r23)
    8b80:	01c00044 	movi	r7,1
    8b84:	d98007c4 	addi	r6,sp,31
    8b88:	b80b883a 	mov	r5,r23
    8b8c:	8009883a 	mov	r4,r16
    8b90:	103ee83a 	callr	r2
    8b94:	103f361e 	bne	r2,zero,8870 <___vfprintf_internal_r+0xd8>
    8b98:	b5800044 	addi	r22,r22,1
    8b9c:	003fcc06 	br	8ad0 <___vfprintf_internal_r+0x338>
    8ba0:	e0bfffc3 	ldbu	r2,-1(fp)
    8ba4:	01c00044 	movi	r7,1
    8ba8:	d98007c4 	addi	r6,sp,31
    8bac:	d88007c5 	stb	r2,31(sp)
    8bb0:	b8800117 	ldw	r2,4(r23)
    8bb4:	b80b883a 	mov	r5,r23
    8bb8:	8009883a 	mov	r4,r16
    8bbc:	e73fffc4 	addi	fp,fp,-1
    8bc0:	103ee83a 	callr	r2
    8bc4:	103fc526 	beq	r2,zero,8adc <___vfprintf_internal_r+0x344>
    8bc8:	003f2906 	br	8870 <___vfprintf_internal_r+0xd8>
    8bcc:	88800090 	cmplti	r2,r17,2
    8bd0:	1000081e 	bne	r2,zero,8bf4 <___vfprintf_internal_r+0x45c>
    8bd4:	8d7fffc4 	addi	r21,r17,-1
    8bd8:	a80f883a 	mov	r7,r21
    8bdc:	01800804 	movi	r6,32
    8be0:	b80b883a 	mov	r5,r23
    8be4:	8009883a 	mov	r4,r16
    8be8:	000872c0 	call	872c <print_repeat>
    8bec:	103f201e 	bne	r2,zero,8870 <___vfprintf_internal_r+0xd8>
    8bf0:	b56d883a 	add	r22,r22,r21
    8bf4:	e0800017 	ldw	r2,0(fp)
    8bf8:	01c00044 	movi	r7,1
    8bfc:	d9800804 	addi	r6,sp,32
    8c00:	d8800805 	stb	r2,32(sp)
    8c04:	b8800117 	ldw	r2,4(r23)
    8c08:	b80b883a 	mov	r5,r23
    8c0c:	8009883a 	mov	r4,r16
    8c10:	e5400104 	addi	r21,fp,4
    8c14:	103ee83a 	callr	r2
    8c18:	103f151e 	bne	r2,zero,8870 <___vfprintf_internal_r+0xd8>
    8c1c:	b5800044 	addi	r22,r22,1
    8c20:	a839883a 	mov	fp,r21
    8c24:	003ef706 	br	8804 <___vfprintf_internal_r+0x6c>
    8c28:	d8000215 	stw	zero,8(sp)
    8c2c:	d8000115 	stw	zero,4(sp)
    8c30:	d8000015 	stw	zero,0(sp)
    8c34:	04c00044 	movi	r19,1
    8c38:	05000284 	movi	r20,10
    8c3c:	04bfffc4 	movi	r18,-1
    8c40:	047fffc4 	movi	r17,-1
    8c44:	00800044 	movi	r2,1
    8c48:	003eee06 	br	8804 <___vfprintf_internal_r+0x6c>
    8c4c:	00800044 	movi	r2,1
    8c50:	d8800015 	stw	r2,0(sp)
    8c54:	003efa06 	br	8840 <___vfprintf_internal_r+0xa8>
    8c58:	00800044 	movi	r2,1
    8c5c:	d8800115 	stw	r2,4(sp)
    8c60:	008000c4 	movi	r2,3
    8c64:	003ee706 	br	8804 <___vfprintf_internal_r+0x6c>
    8c68:	05000204 	movi	r20,8
    8c6c:	e0800104 	addi	r2,fp,4
    8c70:	d8800415 	stw	r2,16(sp)
    8c74:	e5400017 	ldw	r21,0(fp)
    8c78:	0027883a 	mov	r19,zero
    8c7c:	0007883a 	mov	r3,zero
    8c80:	003f6b06 	br	8a30 <___vfprintf_internal_r+0x298>

00008c84 <__vfprintf_internal>:
    8c84:	00800074 	movhi	r2,1
    8c88:	300f883a 	mov	r7,r6
    8c8c:	280d883a 	mov	r6,r5
    8c90:	200b883a 	mov	r5,r4
    8c94:	11267b17 	ldw	r4,-26132(r2)
    8c98:	00087981 	jmpi	8798 <___vfprintf_internal_r>

00008c9c <__errno>:
    8c9c:	00800074 	movhi	r2,1
    8ca0:	10a67b17 	ldw	r2,-26132(r2)
    8ca4:	f800283a 	ret

00008ca8 <__sfvwrite_small_dev>:
    8ca8:	2880000b 	ldhu	r2,0(r5)
    8cac:	1080020c 	andi	r2,r2,8
    8cb0:	10002526 	beq	r2,zero,8d48 <__sfvwrite_small_dev+0xa0>
    8cb4:	2880008f 	ldh	r2,2(r5)
    8cb8:	defffb04 	addi	sp,sp,-20
    8cbc:	dcc00315 	stw	r19,12(sp)
    8cc0:	dc800215 	stw	r18,8(sp)
    8cc4:	dc400115 	stw	r17,4(sp)
    8cc8:	dc000015 	stw	r16,0(sp)
    8ccc:	dfc00415 	stw	ra,16(sp)
    8cd0:	2027883a 	mov	r19,r4
    8cd4:	2821883a 	mov	r16,r5
    8cd8:	3025883a 	mov	r18,r6
    8cdc:	3823883a 	mov	r17,r7
    8ce0:	1000100e 	bge	r2,zero,8d24 <__sfvwrite_small_dev+0x7c>
    8ce4:	8080000b 	ldhu	r2,0(r16)
    8ce8:	10801014 	ori	r2,r2,64
    8cec:	8080000d 	sth	r2,0(r16)
    8cf0:	00bfffc4 	movi	r2,-1
    8cf4:	00000d06 	br	8d2c <__sfvwrite_small_dev+0x84>
    8cf8:	88810050 	cmplti	r2,r17,1025
    8cfc:	880f883a 	mov	r7,r17
    8d00:	1000011e 	bne	r2,zero,8d08 <__sfvwrite_small_dev+0x60>
    8d04:	01c10004 	movi	r7,1024
    8d08:	8140008f 	ldh	r5,2(r16)
    8d0c:	900d883a 	mov	r6,r18
    8d10:	9809883a 	mov	r4,r19
    8d14:	0008df40 	call	8df4 <_write_r>
    8d18:	00bff20e 	bge	zero,r2,8ce4 <__sfvwrite_small_dev+0x3c>
    8d1c:	88a3c83a 	sub	r17,r17,r2
    8d20:	90a5883a 	add	r18,r18,r2
    8d24:	047ff416 	blt	zero,r17,8cf8 <__sfvwrite_small_dev+0x50>
    8d28:	0005883a 	mov	r2,zero
    8d2c:	dfc00417 	ldw	ra,16(sp)
    8d30:	dcc00317 	ldw	r19,12(sp)
    8d34:	dc800217 	ldw	r18,8(sp)
    8d38:	dc400117 	ldw	r17,4(sp)
    8d3c:	dc000017 	ldw	r16,0(sp)
    8d40:	dec00504 	addi	sp,sp,20
    8d44:	f800283a 	ret
    8d48:	00bfffc4 	movi	r2,-1
    8d4c:	f800283a 	ret

00008d50 <putc>:
    8d50:	defffd04 	addi	sp,sp,-12
    8d54:	00800074 	movhi	r2,1
    8d58:	dc000115 	stw	r16,4(sp)
    8d5c:	dfc00215 	stw	ra,8(sp)
    8d60:	10a32a04 	addi	r2,r2,-29528
    8d64:	28800115 	stw	r2,4(r5)
    8d68:	00800074 	movhi	r2,1
    8d6c:	d90000c5 	stb	r4,3(sp)
    8d70:	2021883a 	mov	r16,r4
    8d74:	11267b17 	ldw	r4,-26132(r2)
    8d78:	01c00044 	movi	r7,1
    8d7c:	d98000c4 	addi	r6,sp,3
    8d80:	0008ca80 	call	8ca8 <__sfvwrite_small_dev>
    8d84:	10ffffe0 	cmpeqi	r3,r2,-1
    8d88:	1800011e 	bne	r3,zero,8d90 <putc+0x40>
    8d8c:	8005883a 	mov	r2,r16
    8d90:	dfc00217 	ldw	ra,8(sp)
    8d94:	dc000117 	ldw	r16,4(sp)
    8d98:	dec00304 	addi	sp,sp,12
    8d9c:	f800283a 	ret

00008da0 <_putc_r>:
    8da0:	defffd04 	addi	sp,sp,-12
    8da4:	00800074 	movhi	r2,1
    8da8:	dc000115 	stw	r16,4(sp)
    8dac:	dfc00215 	stw	ra,8(sp)
    8db0:	10a32a04 	addi	r2,r2,-29528
    8db4:	30800115 	stw	r2,4(r6)
    8db8:	00800074 	movhi	r2,1
    8dbc:	11267b17 	ldw	r4,-26132(r2)
    8dc0:	2821883a 	mov	r16,r5
    8dc4:	01c00044 	movi	r7,1
    8dc8:	300b883a 	mov	r5,r6
    8dcc:	d98000c4 	addi	r6,sp,3
    8dd0:	dc0000c5 	stb	r16,3(sp)
    8dd4:	0008ca80 	call	8ca8 <__sfvwrite_small_dev>
    8dd8:	10ffffe0 	cmpeqi	r3,r2,-1
    8ddc:	1800011e 	bne	r3,zero,8de4 <_putc_r+0x44>
    8de0:	8005883a 	mov	r2,r16
    8de4:	dfc00217 	ldw	ra,8(sp)
    8de8:	dc000117 	ldw	r16,4(sp)
    8dec:	dec00304 	addi	sp,sp,12
    8df0:	f800283a 	ret

00008df4 <_write_r>:
    8df4:	defffe04 	addi	sp,sp,-8
    8df8:	dc000015 	stw	r16,0(sp)
    8dfc:	00800074 	movhi	r2,1
    8e00:	2021883a 	mov	r16,r4
    8e04:	2809883a 	mov	r4,r5
    8e08:	300b883a 	mov	r5,r6
    8e0c:	380d883a 	mov	r6,r7
    8e10:	dfc00115 	stw	ra,4(sp)
    8e14:	1026db15 	stw	zero,-25748(r2)
    8e18:	00090e80 	call	90e8 <write>
    8e1c:	10ffffd8 	cmpnei	r3,r2,-1
    8e20:	1800041e 	bne	r3,zero,8e34 <_write_r+0x40>
    8e24:	00c00074 	movhi	r3,1
    8e28:	18e6db17 	ldw	r3,-25748(r3)
    8e2c:	18000126 	beq	r3,zero,8e34 <_write_r+0x40>
    8e30:	80c00015 	stw	r3,0(r16)
    8e34:	dfc00117 	ldw	ra,4(sp)
    8e38:	dc000017 	ldw	r16,0(sp)
    8e3c:	dec00204 	addi	sp,sp,8
    8e40:	f800283a 	ret

00008e44 <__divsi3>:
    8e44:	20001a16 	blt	r4,zero,8eb0 <__divsi3+0x6c>
    8e48:	000f883a 	mov	r7,zero
    8e4c:	2800020e 	bge	r5,zero,8e58 <__divsi3+0x14>
    8e50:	014bc83a 	sub	r5,zero,r5
    8e54:	39c0005c 	xori	r7,r7,1
    8e58:	200d883a 	mov	r6,r4
    8e5c:	00c00044 	movi	r3,1
    8e60:	2900092e 	bgeu	r5,r4,8e88 <__divsi3+0x44>
    8e64:	00800804 	movi	r2,32
    8e68:	00c00044 	movi	r3,1
    8e6c:	00000106 	br	8e74 <__divsi3+0x30>
    8e70:	10001226 	beq	r2,zero,8ebc <__divsi3+0x78>
    8e74:	294b883a 	add	r5,r5,r5
    8e78:	10bfffc4 	addi	r2,r2,-1
    8e7c:	18c7883a 	add	r3,r3,r3
    8e80:	293ffb36 	bltu	r5,r4,8e70 <__divsi3+0x2c>
    8e84:	18000d26 	beq	r3,zero,8ebc <__divsi3+0x78>
    8e88:	0005883a 	mov	r2,zero
    8e8c:	31400236 	bltu	r6,r5,8e98 <__divsi3+0x54>
    8e90:	314dc83a 	sub	r6,r6,r5
    8e94:	10c4b03a 	or	r2,r2,r3
    8e98:	1806d07a 	srli	r3,r3,1
    8e9c:	280ad07a 	srli	r5,r5,1
    8ea0:	183ffa1e 	bne	r3,zero,8e8c <__divsi3+0x48>
    8ea4:	38000126 	beq	r7,zero,8eac <__divsi3+0x68>
    8ea8:	0085c83a 	sub	r2,zero,r2
    8eac:	f800283a 	ret
    8eb0:	0109c83a 	sub	r4,zero,r4
    8eb4:	01c00044 	movi	r7,1
    8eb8:	003fe406 	br	8e4c <__divsi3+0x8>
    8ebc:	0005883a 	mov	r2,zero
    8ec0:	003ff806 	br	8ea4 <__divsi3+0x60>

00008ec4 <__modsi3>:
    8ec4:	20001916 	blt	r4,zero,8f2c <__modsi3+0x68>
    8ec8:	000f883a 	mov	r7,zero
    8ecc:	2005883a 	mov	r2,r4
    8ed0:	2800010e 	bge	r5,zero,8ed8 <__modsi3+0x14>
    8ed4:	014bc83a 	sub	r5,zero,r5
    8ed8:	00c00044 	movi	r3,1
    8edc:	2900092e 	bgeu	r5,r4,8f04 <__modsi3+0x40>
    8ee0:	01800804 	movi	r6,32
    8ee4:	00c00044 	movi	r3,1
    8ee8:	00000106 	br	8ef0 <__modsi3+0x2c>
    8eec:	30000d26 	beq	r6,zero,8f24 <__modsi3+0x60>
    8ef0:	294b883a 	add	r5,r5,r5
    8ef4:	31bfffc4 	addi	r6,r6,-1
    8ef8:	18c7883a 	add	r3,r3,r3
    8efc:	293ffb36 	bltu	r5,r4,8eec <__modsi3+0x28>
    8f00:	18000826 	beq	r3,zero,8f24 <__modsi3+0x60>
    8f04:	1806d07a 	srli	r3,r3,1
    8f08:	11400136 	bltu	r2,r5,8f10 <__modsi3+0x4c>
    8f0c:	1145c83a 	sub	r2,r2,r5
    8f10:	280ad07a 	srli	r5,r5,1
    8f14:	183ffb1e 	bne	r3,zero,8f04 <__modsi3+0x40>
    8f18:	38000126 	beq	r7,zero,8f20 <__modsi3+0x5c>
    8f1c:	0085c83a 	sub	r2,zero,r2
    8f20:	f800283a 	ret
    8f24:	2005883a 	mov	r2,r4
    8f28:	003ffb06 	br	8f18 <__modsi3+0x54>
    8f2c:	0109c83a 	sub	r4,zero,r4
    8f30:	01c00044 	movi	r7,1
    8f34:	003fe506 	br	8ecc <__modsi3+0x8>

00008f38 <__udivsi3>:
    8f38:	200d883a 	mov	r6,r4
    8f3c:	2900152e 	bgeu	r5,r4,8f94 <__udivsi3+0x5c>
    8f40:	28001416 	blt	r5,zero,8f94 <__udivsi3+0x5c>
    8f44:	00800804 	movi	r2,32
    8f48:	00c00044 	movi	r3,1
    8f4c:	00000206 	br	8f58 <__udivsi3+0x20>
    8f50:	10000e26 	beq	r2,zero,8f8c <__udivsi3+0x54>
    8f54:	28000516 	blt	r5,zero,8f6c <__udivsi3+0x34>
    8f58:	294b883a 	add	r5,r5,r5
    8f5c:	10bfffc4 	addi	r2,r2,-1
    8f60:	18c7883a 	add	r3,r3,r3
    8f64:	293ffa36 	bltu	r5,r4,8f50 <__udivsi3+0x18>
    8f68:	18000826 	beq	r3,zero,8f8c <__udivsi3+0x54>
    8f6c:	0005883a 	mov	r2,zero
    8f70:	31400236 	bltu	r6,r5,8f7c <__udivsi3+0x44>
    8f74:	314dc83a 	sub	r6,r6,r5
    8f78:	10c4b03a 	or	r2,r2,r3
    8f7c:	1806d07a 	srli	r3,r3,1
    8f80:	280ad07a 	srli	r5,r5,1
    8f84:	183ffa1e 	bne	r3,zero,8f70 <__udivsi3+0x38>
    8f88:	f800283a 	ret
    8f8c:	0005883a 	mov	r2,zero
    8f90:	f800283a 	ret
    8f94:	00c00044 	movi	r3,1
    8f98:	003ff406 	br	8f6c <__udivsi3+0x34>

00008f9c <__umodsi3>:
    8f9c:	2005883a 	mov	r2,r4
    8fa0:	2900132e 	bgeu	r5,r4,8ff0 <__umodsi3+0x54>
    8fa4:	28001216 	blt	r5,zero,8ff0 <__umodsi3+0x54>
    8fa8:	01800804 	movi	r6,32
    8fac:	00c00044 	movi	r3,1
    8fb0:	00000206 	br	8fbc <__umodsi3+0x20>
    8fb4:	30000c26 	beq	r6,zero,8fe8 <__umodsi3+0x4c>
    8fb8:	28000516 	blt	r5,zero,8fd0 <__umodsi3+0x34>
    8fbc:	294b883a 	add	r5,r5,r5
    8fc0:	31bfffc4 	addi	r6,r6,-1
    8fc4:	18c7883a 	add	r3,r3,r3
    8fc8:	293ffa36 	bltu	r5,r4,8fb4 <__umodsi3+0x18>
    8fcc:	18000626 	beq	r3,zero,8fe8 <__umodsi3+0x4c>
    8fd0:	1806d07a 	srli	r3,r3,1
    8fd4:	11400136 	bltu	r2,r5,8fdc <__umodsi3+0x40>
    8fd8:	1145c83a 	sub	r2,r2,r5
    8fdc:	280ad07a 	srli	r5,r5,1
    8fe0:	183ffb1e 	bne	r3,zero,8fd0 <__umodsi3+0x34>
    8fe4:	f800283a 	ret
    8fe8:	2005883a 	mov	r2,r4
    8fec:	f800283a 	ret
    8ff0:	00c00044 	movi	r3,1
    8ff4:	003ff606 	br	8fd0 <__umodsi3+0x34>

00008ff8 <alt_getchar>:
#else
#ifdef ALT_USE_DIRECT_DRIVERS
    ALT_DRIVER_READ_EXTERNS(ALT_STDIN_DEV);
    char c;

    if (ALT_DRIVER_READ(ALT_STDIN_DEV, &c, 1, alt_fd_list[STDIN_FILENO].fd_flags) <= 0) {
    8ff8:	00800074 	movhi	r2,1
    8ffc:	11e66617 	ldw	r7,-26216(r2)
{
    9000:	defffe04 	addi	sp,sp,-8
    if (ALT_DRIVER_READ(ALT_STDIN_DEV, &c, 1, alt_fd_list[STDIN_FILENO].fd_flags) <= 0) {
    9004:	01000074 	movhi	r4,1
    9008:	01800044 	movi	r6,1
    900c:	d94000c4 	addi	r5,sp,3
    9010:	21267c04 	addi	r4,r4,-26128
{
    9014:	dfc00115 	stw	ra,4(sp)
    if (ALT_DRIVER_READ(ALT_STDIN_DEV, &c, 1, alt_fd_list[STDIN_FILENO].fd_flags) <= 0) {
    9018:	00091680 	call	9168 <altera_avalon_jtag_uart_read>
    901c:	0080040e 	bge	zero,r2,9030 <alt_getchar+0x38>
        return -1;
    }
    return c;
    9020:	d88000c7 	ldb	r2,3(sp)
#else
    return getchar();
#endif
#endif
}
    9024:	dfc00117 	ldw	ra,4(sp)
    9028:	dec00204 	addi	sp,sp,8
    902c:	f800283a 	ret
        return -1;
    9030:	00bfffc4 	movi	r2,-1
    9034:	003ffb06 	br	9024 <alt_getchar+0x2c>

00009038 <alt_load>:
 * there is no bootloader, so this application is responsible for loading to
 * RAM any sections that are required.
 */  

void alt_load (void)
{
    9038:	deffff04 	addi	sp,sp,-4

static void ALT_INLINE alt_load_section (alt_u32* from, 
                                         alt_u32* to, 
                                         alt_u32* end)
{
  if (to != from)
    903c:	01000074 	movhi	r4,1
    9040:	01400074 	movhi	r5,1
    9044:	dfc00015 	stw	ra,0(sp)
    9048:	21262b04 	addi	r4,r4,-26452
    904c:	29668304 	addi	r5,r5,-26100
    9050:	21400426 	beq	r4,r5,9064 <alt_load+0x2c>
  {
    while( to != end )
    {
      *to++ = *from++;
    9054:	01800074 	movhi	r6,1
    9058:	31a68304 	addi	r6,r6,-26100
    905c:	310dc83a 	sub	r6,r6,r4
    9060:	000926c0 	call	926c <memcpy>
  if (to != from)
    9064:	01000074 	movhi	r4,1
    9068:	01400074 	movhi	r5,1
    906c:	21200804 	addi	r4,r4,-32736
    9070:	29600804 	addi	r5,r5,-32736
    9074:	21400426 	beq	r4,r5,9088 <alt_load+0x50>
      *to++ = *from++;
    9078:	01800074 	movhi	r6,1
    907c:	31a00804 	addi	r6,r6,-32736
    9080:	310dc83a 	sub	r6,r6,r4
    9084:	000926c0 	call	926c <memcpy>
  if (to != from)
    9088:	01000074 	movhi	r4,1
    908c:	01400074 	movhi	r5,1
    9090:	2124a504 	addi	r4,r4,-28012
    9094:	2964a504 	addi	r5,r5,-28012
    9098:	21400426 	beq	r4,r5,90ac <alt_load+0x74>
      *to++ = *from++;
    909c:	01800074 	movhi	r6,1
    90a0:	31a62b04 	addi	r6,r6,-26452
    90a4:	310dc83a 	sub	r6,r6,r4
    90a8:	000926c0 	call	926c <memcpy>
  
  /*
   * Now ensure that the caches are in synch.
   */
  
  alt_dcache_flush_all();
    90ac:	00091f00 	call	91f0 <alt_dcache_flush_all>
  alt_icache_flush_all();
}
    90b0:	dfc00017 	ldw	ra,0(sp)
    90b4:	dec00104 	addi	sp,sp,4
  alt_icache_flush_all();
    90b8:	00091fc1 	jmpi	91fc <alt_icache_flush_all>

000090bc <alt_main>:
 * devices/filesystems/components in the system; and call the entry point for
 * the users application, i.e. main().
 */

void alt_main (void)
{
    90bc:	deffff04 	addi	sp,sp,-4
#endif

  /* ALT LOG - please see HAL/sys/alt_log_printf.h for details */
  ALT_LOG_PRINT_BOOT("[alt_main.c] Entering alt_main, calling alt_irq_init.\r\n");
  /* Initialize the interrupt controller. */
  alt_irq_init (NULL);
    90c0:	0009883a 	mov	r4,zero
{
    90c4:	dfc00015 	stw	ra,0(sp)
  alt_irq_init (NULL);
    90c8:	00091440 	call	9144 <alt_irq_init>
  ALT_LOG_PRINT_BOOT("[alt_main.c] Done OS Init, calling alt_sem_create.\r\n");
  ALT_SEM_CREATE (&alt_fd_list_lock, 1);

  /* Initialize the device drivers/software components. */
  ALT_LOG_PRINT_BOOT("[alt_main.c] Calling alt_sys_init.\r\n");
  alt_sys_init();
    90cc:	00091640 	call	9164 <alt_sys_init>
   */

  ALT_LOG_PRINT_BOOT("[alt_main.c] Calling main.\r\n");

#ifdef ALT_NO_EXIT
  main (alt_argc, alt_argv, alt_envp);
    90d0:	d1a06217 	ldw	r6,-32376(gp)
    90d4:	d1606317 	ldw	r5,-32372(gp)
    90d8:	d1206417 	ldw	r4,-32368(gp)
  close(STDOUT_FILENO);
  exit (result);
#endif

  ALT_LOG_PRINT_BOOT("[alt_main.c] After main - we should not be here?.\r\n");
}
    90dc:	dfc00017 	ldw	ra,0(sp)
    90e0:	dec00104 	addi	sp,sp,4
  main (alt_argc, alt_argv, alt_envp);
    90e4:	00080cc1 	jmpi	80cc <main>

000090e8 <write>:
#if !defined(ALT_STDOUT_PRESENT) && !defined(ALT_STDERR_PRESENT)
    /* Generate a link time warning, should this function ever be called. */
    ALT_STUB_WARNING(write);
#endif

    switch (file) {
    90e8:	213fffc4 	addi	r4,r4,-1
    90ec:	210000a8 	cmpgeui	r4,r4,2
    90f0:	2000041e 	bne	r4,zero,9104 <write+0x1c>
#ifdef ALT_STDOUT_PRESENT
    case 1: /* stdout file descriptor */
        return ALT_DRIVER_WRITE(ALT_STDOUT_DEV, ptr, len, 0);
    90f4:	01000074 	movhi	r4,1
    90f8:	000f883a 	mov	r7,zero
    90fc:	21267c04 	addi	r4,r4,-26128
    9100:	00091c01 	jmpi	91c0 <altera_avalon_jtag_uart_write>

extern int errno;

static ALT_INLINE int* alt_get_errno(void)
{
  return ((alt_errno) ? alt_errno() : &errno);
    9104:	d0a00817 	ldw	r2,-32736(gp)
    9108:	10000926 	beq	r2,zero,9130 <write+0x48>
{
    910c:	deffff04 	addi	sp,sp,-4
    9110:	dfc00015 	stw	ra,0(sp)
    9114:	103ee83a 	callr	r2
#ifdef ALT_STDERR_PRESENT
    case 2: /* stderr file descriptor */
        return ALT_DRIVER_WRITE(ALT_STDERR_DEV, ptr, len, 0);
#endif /* ALT_STDERR_PRESENT */
    default:
        ALT_ERRNO = EBADFD;
    9118:	00c01444 	movi	r3,81
    911c:	10c00015 	stw	r3,0(r2)
        return -1;
    }
}
    9120:	00bfffc4 	movi	r2,-1
    9124:	dfc00017 	ldw	ra,0(sp)
    9128:	dec00104 	addi	sp,sp,4
    912c:	f800283a 	ret
    9130:	d0a06104 	addi	r2,gp,-32380
        ALT_ERRNO = EBADFD;
    9134:	00c01444 	movi	r3,81
    9138:	10c00015 	stw	r3,0(r2)
}
    913c:	00bfffc4 	movi	r2,-1
    9140:	f800283a 	ret

00009144 <alt_irq_init>:
 * The "base" parameter is ignored and only
 * present for backwards-compatibility.
 */

void alt_irq_init ( const void* base )
{
    9144:	deffff04 	addi	sp,sp,-4
    9148:	dfc00015 	stw	ra,0(sp)
    ALTERA_NIOS2_GEN2_IRQ_INIT ( CPU, cpu);
    914c:	00092080 	call	9208 <altera_nios2_gen2_irq_init>
 * alt_irq_cpu_enable_interrupts() enables the CPU to start taking interrupts.
 */
static ALT_INLINE void ALT_ALWAYS_INLINE 
       alt_irq_cpu_enable_interrupts (void)
{
    NIOS2_WRITE_STATUS(NIOS2_STATUS_PIE_MSK
    9150:	00800044 	movi	r2,1
    9154:	1001703a 	wrctl	status,r2
    alt_irq_cpu_enable_interrupts();
}
    9158:	dfc00017 	ldw	ra,0(sp)
    915c:	dec00104 	addi	sp,sp,4
    9160:	f800283a 	ret

00009164 <alt_sys_init>:
void alt_sys_init( void )
{
    ALTERA_AVALON_TIMER_INIT ( SYS_CLK_TIMER, sys_clk_timer);
    ALTERA_AVALON_JTAG_UART_INIT ( JTAG_UART, jtag_uart);
    ALTERA_AVALON_SYSID_QSYS_INIT ( SYSID, sysid);
}
    9164:	f800283a 	ret

00009168 <altera_avalon_jtag_uart_read>:

int 
altera_avalon_jtag_uart_read(altera_avalon_jtag_uart_state* sp, 
  char* buffer, int space, int flags)
{
  unsigned int base = sp->base;
    9168:	21000017 	ldw	r4,0(r4)

  char * ptr = buffer;
  char * end = buffer + space;
    916c:	298d883a 	add	r6,r5,r6

  while (ptr < end)
    9170:	2805883a 	mov	r2,r5

    if (data & ALTERA_AVALON_JTAG_UART_DATA_RVALID_MSK)
      *ptr++ = (data & ALTERA_AVALON_JTAG_UART_DATA_DATA_MSK) >> ALTERA_AVALON_JTAG_UART_DATA_DATA_OFST;
    else if (ptr != buffer)
      break;
    else if(flags & O_NONBLOCK)
    9174:	3a10000c 	andi	r8,r7,16384
  while (ptr < end)
    9178:	11800536 	bltu	r2,r6,9190 <altera_avalon_jtag_uart_read+0x28>
      break;   
    
  }

  if (ptr != buffer)
    917c:	11400b1e 	bne	r2,r5,91ac <altera_avalon_jtag_uart_read+0x44>
    return ptr - buffer;
  else if (flags & O_NONBLOCK)
    9180:	39d0000c 	andi	r7,r7,16384
    9184:	38000c1e 	bne	r7,zero,91b8 <altera_avalon_jtag_uart_read+0x50>
    return -EWOULDBLOCK;
  else
    return -EIO;
    9188:	00bffec4 	movi	r2,-5
}
    918c:	f800283a 	ret
    unsigned int data = IORD_ALTERA_AVALON_JTAG_UART_DATA(base);
    9190:	20c00037 	ldwio	r3,0(r4)
    if (data & ALTERA_AVALON_JTAG_UART_DATA_RVALID_MSK)
    9194:	1a60000c 	andi	r9,r3,32768
    9198:	48000326 	beq	r9,zero,91a8 <altera_avalon_jtag_uart_read+0x40>
      *ptr++ = (data & ALTERA_AVALON_JTAG_UART_DATA_DATA_MSK) >> ALTERA_AVALON_JTAG_UART_DATA_DATA_OFST;
    919c:	10c00005 	stb	r3,0(r2)
    91a0:	10800044 	addi	r2,r2,1
    91a4:	003ff406 	br	9178 <altera_avalon_jtag_uart_read+0x10>
    else if (ptr != buffer)
    91a8:	11400226 	beq	r2,r5,91b4 <altera_avalon_jtag_uart_read+0x4c>
    return ptr - buffer;
    91ac:	1145c83a 	sub	r2,r2,r5
    91b0:	f800283a 	ret
    else if(flags & O_NONBLOCK)
    91b4:	403ff026 	beq	r8,zero,9178 <altera_avalon_jtag_uart_read+0x10>
    return -EWOULDBLOCK;
    91b8:	00bffd44 	movi	r2,-11
    91bc:	f800283a 	ret

000091c0 <altera_avalon_jtag_uart_write>:
 */

int altera_avalon_jtag_uart_write(altera_avalon_jtag_uart_state* sp, 
  const char * ptr, int count, int flags)
{
  unsigned int base = sp->base;
    91c0:	21000017 	ldw	r4,0(r4)
{
    91c4:	3005883a 	mov	r2,r6

  const char * end = ptr + count;
    91c8:	298d883a 	add	r6,r5,r6

  while (ptr < end)
    91cc:	29800136 	bltu	r5,r6,91d4 <altera_avalon_jtag_uart_write+0x14>
    if ((IORD_ALTERA_AVALON_JTAG_UART_CONTROL(base) & ALTERA_AVALON_JTAG_UART_CONTROL_WSPACE_MSK) != 0)
      IOWR_ALTERA_AVALON_JTAG_UART_DATA(base, *ptr++);

  return count;
}
    91d0:	f800283a 	ret
    if ((IORD_ALTERA_AVALON_JTAG_UART_CONTROL(base) & ALTERA_AVALON_JTAG_UART_CONTROL_WSPACE_MSK) != 0)
    91d4:	20c00137 	ldwio	r3,4(r4)
    91d8:	18ffffec 	andhi	r3,r3,65535
    91dc:	183ffb26 	beq	r3,zero,91cc <altera_avalon_jtag_uart_write+0xc>
      IOWR_ALTERA_AVALON_JTAG_UART_DATA(base, *ptr++);
    91e0:	28c00007 	ldb	r3,0(r5)
    91e4:	29400044 	addi	r5,r5,1
    91e8:	20c00035 	stwio	r3,0(r4)
    91ec:	003ff706 	br	91cc <altera_avalon_jtag_uart_write+0xc>

000091f0 <alt_dcache_flush_all>:
  for (i = (char*) 0; i < (char*) NIOS2_DCACHE_SIZE; i+= NIOS2_DCACHE_LINE_SIZE)
  { 
    __asm__ volatile ("flushd (%0)" :: "r" (i));
  }
#endif /* NIOS2_DCACHE_SIZE > 0 */
}
    91f0:	f800283a 	ret

000091f4 <alt_dev_null_write>:
 * by the alt_dev_null device. It simple discards all data passed to it, and
 * indicates that the data has been successfully transmitted.
 */

static int alt_dev_null_write (alt_fd* fd, const char* ptr, int len)
{
    91f4:	3005883a 	mov	r2,r6
  return len;
}
    91f8:	f800283a 	ret

000091fc <alt_icache_flush_all>:
 */

void alt_icache_flush_all (void)
{
#if NIOS2_ICACHE_SIZE > 0
  alt_icache_flush (0, NIOS2_ICACHE_SIZE);
    91fc:	01420004 	movi	r5,2048
    9200:	0009883a 	mov	r4,zero
    9204:	00092101 	jmpi	9210 <alt_icache_flush>

00009208 <altera_nios2_gen2_irq_init>:
 * To initialize the internal interrupt controller, just clear the IENABLE
 * register so that all possible IRQs are disabled.
 */
void altera_nios2_gen2_irq_init(void) 
{
    NIOS2_WRITE_IENABLE(0);
    9208:	000170fa 	wrctl	ienable,zero
}
    920c:	f800283a 	ret

00009210 <alt_icache_flush>:
  if (len > NIOS2_ICACHE_SIZE)
  {
    len = NIOS2_ICACHE_SIZE;
  }

  end = ((char*) start) + len;
    9210:	28820070 	cmpltui	r2,r5,2049
    9214:	1000011e 	bne	r2,zero,921c <alt_icache_flush+0xc>
    9218:	01420004 	movi	r5,2048
    921c:	214b883a 	add	r5,r4,r5

  for (i = start; i < end; i+= NIOS2_ICACHE_LINE_SIZE)
    9220:	2005883a 	mov	r2,r4
    9224:	11400c36 	bltu	r2,r5,9258 <alt_icache_flush+0x48>
    9228:	20bff844 	addi	r2,r4,-31
    922c:	28800d36 	bltu	r5,r2,9264 <alt_icache_flush+0x54>
    9230:	290bc83a 	sub	r5,r5,r4
    9234:	294007c4 	addi	r5,r5,31
    9238:	280ad17a 	srli	r5,r5,5
    923c:	280a917a 	slli	r5,r5,5
    9240:	214b883a 	add	r5,r4,r5
   * For an unaligned flush request, we've got one more line left.
   * Note that this is dependent on NIOS2_ICACHE_LINE_SIZE to be a 
   * multiple of 2 (which it always is).
   */

  if (((alt_u32) start) & (NIOS2_ICACHE_LINE_SIZE - 1))
    9244:	210007cc 	andi	r4,r4,31
    9248:	20000126 	beq	r4,zero,9250 <alt_icache_flush+0x40>
  {
    __asm__ volatile ("flushi %0" :: "r" (i));
    924c:	2800603a 	flushi	r5
  /* 
   * Having flushed the cache, flush any stale instructions in the 
   * pipeline 
   */

  __asm__ volatile ("flushp");
    9250:	0000203a 	flushp

#endif /* NIOS2_ICACHE_SIZE > 0 */
}
    9254:	f800283a 	ret
    __asm__ volatile ("flushi %0" :: "r" (i)); 
    9258:	1000603a 	flushi	r2
  for (i = start; i < end; i+= NIOS2_ICACHE_LINE_SIZE)
    925c:	10800804 	addi	r2,r2,32
    9260:	003ff006 	br	9224 <alt_icache_flush+0x14>
    9264:	000b883a 	mov	r5,zero
    9268:	003ff506 	br	9240 <alt_icache_flush+0x30>

0000926c <memcpy>:
    926c:	2005883a 	mov	r2,r4
    9270:	0007883a 	mov	r3,zero
    9274:	30c0011e 	bne	r6,r3,927c <memcpy+0x10>
    9278:	f800283a 	ret
    927c:	28cf883a 	add	r7,r5,r3
    9280:	39c00003 	ldbu	r7,0(r7)
    9284:	10c9883a 	add	r4,r2,r3
    9288:	18c00044 	addi	r3,r3,1
    928c:	21c00005 	stb	r7,0(r4)
    9290:	003ff806 	br	9274 <memcpy+0x8>
